libhdr10plus.so:_Z17hdr10plus_api_getv
libhdr10plus.so:_Z20_txnal_cow_string_D1Pv
libhdr10plus.so:_Z21hdr10plus_clear_movieRPPhi
libhdr10plus.so:_Z23_txnal_cow_string_c_strPKv
libhdr10plus.so:_Z23_txnal_sso_string_c_strPKv
libhdr10plus.so:_Z26_txnal_logic_error_get_msgPv
libhdr10plus.so:_Z27_txnal_cow_string_D1_commitPv
libhdr10plus.so:_Z27hdr10plus_json_to_frame_cimPKcjRPh
libhdr10plus.so:_Z27hdr10plus_json_to_frame_eifPKcjRPh
libhdr10plus.so:_Z27hdr10plus_json_to_movie_cimPKcRPPh
libhdr10plus.so:_Z27hdr10plus_json_to_movie_eifPKcRPPh
libhdr10plus.so:_Z28_txnal_runtime_error_get_msgPv
libhdr10plus.so:_Z35_txnal_cow_string_C1_for_exceptionsPvPKcS_
libhdr10plus.so:_ZGTtNKSt11logic_error4whatEv
libhdr10plus.so:_ZGTtNKSt13bad_exception4whatEv
libhdr10plus.so:_ZGTtNKSt13bad_exceptionD1Ev
libhdr10plus.so:_ZGTtNKSt13runtime_error4whatEv
libhdr10plus.so:_ZGTtNKSt9exception4whatEv
libhdr10plus.so:_ZGTtNKSt9exceptionD1Ev
libhdr10plus.so:_ZGTtNSt11logic_errorC1EPKc
libhdr10plus.so:_ZGTtNSt11logic_errorC1ERKNSt7__cxx1112basic_stringIcSt11char_traitsIcESaIcEEE
libhdr10plus.so:_ZGTtNSt11logic_errorC2EPKc
libhdr10plus.so:_ZGTtNSt11logic_errorC2ERKNSt7__cxx1112basic_stringIcSt11char_traitsIcESaIcEEE
libhdr10plus.so:_ZGTtNSt11logic_errorD0Ev
libhdr10plus.so:_ZGTtNSt11logic_errorD1Ev
libhdr10plus.so:_ZGTtNSt11logic_errorD2Ev
libhdr10plus.so:_ZGTtNSt11range_errorC1EPKc
libhdr10plus.so:_ZGTtNSt11range_errorC1ERKNSt7__cxx1112basic_stringIcSt11char_traitsIcESaIcEEE
libhdr10plus.so:_ZGTtNSt11range_errorC2EPKc
libhdr10plus.so:_ZGTtNSt11range_errorC2ERKNSt7__cxx1112basic_stringIcSt11char_traitsIcESaIcEEE
libhdr10plus.so:_ZGTtNSt11range_errorD0Ev
libhdr10plus.so:_ZGTtNSt11range_errorD1Ev
libhdr10plus.so:_ZGTtNSt11range_errorD2Ev
libhdr10plus.so:_ZGTtNSt12domain_errorC1EPKc
libhdr10plus.so:_ZGTtNSt12domain_errorC1ERKNSt7__cxx1112basic_stringIcSt11char_traitsIcESaIcEEE
libhdr10plus.so:_ZGTtNSt12domain_errorC2EPKc
libhdr10plus.so:_ZGTtNSt12domain_errorC2ERKNSt7__cxx1112basic_stringIcSt11char_traitsIcESaIcEEE
libhdr10plus.so:_ZGTtNSt12domain_errorD0Ev
libhdr10plus.so:_ZGTtNSt12domain_errorD1Ev
libhdr10plus.so:_ZGTtNSt12domain_errorD2Ev
libhdr10plus.so:_ZGTtNSt12length_errorC1EPKc
libhdr10plus.so:_ZGTtNSt12length_errorC1ERKNSt7__cxx1112basic_stringIcSt11char_traitsIcESaIcEEE
libhdr10plus.so:_ZGTtNSt12length_errorC2EPKc
libhdr10plus.so:_ZGTtNSt12length_errorC2ERKNSt7__cxx1112basic_stringIcSt11char_traitsIcESaIcEEE
libhdr10plus.so:_ZGTtNSt12length_errorD0Ev
libhdr10plus.so:_ZGTtNSt12length_errorD1Ev
libhdr10plus.so:_ZGTtNSt12length_errorD2Ev
libhdr10plus.so:_ZGTtNSt12out_of_rangeC1EPKc
libhdr10plus.so:_ZGTtNSt12out_of_rangeC1ERKNSt7__cxx1112basic_stringIcSt11char_traitsIcESaIcEEE
libhdr10plus.so:_ZGTtNSt12out_of_rangeC2EPKc
libhdr10plus.so:_ZGTtNSt12out_of_rangeC2ERKNSt7__cxx1112basic_stringIcSt11char_traitsIcESaIcEEE
libhdr10plus.so:_ZGTtNSt12out_of_rangeD0Ev
libhdr10plus.so:_ZGTtNSt12out_of_rangeD1Ev
libhdr10plus.so:_ZGTtNSt12out_of_rangeD2Ev
libhdr10plus.so:_ZGTtNSt13runtime_errorC1EPKc
libhdr10plus.so:_ZGTtNSt13runtime_errorC1ERKNSt7__cxx1112basic_stringIcSt11char_traitsIcESaIcEEE
libhdr10plus.so:_ZGTtNSt13runtime_errorC2EPKc
libhdr10plus.so:_ZGTtNSt13runtime_errorC2ERKNSt7__cxx1112basic_stringIcSt11char_traitsIcESaIcEEE
libhdr10plus.so:_ZGTtNSt13runtime_errorD0Ev
libhdr10plus.so:_ZGTtNSt13runtime_errorD1Ev
libhdr10plus.so:_ZGTtNSt13runtime_errorD2Ev
libhdr10plus.so:_ZGTtNSt14overflow_errorC1EPKc
libhdr10plus.so:_ZGTtNSt14overflow_errorC1ERKNSt7__cxx1112basic_stringIcSt11char_traitsIcESaIcEEE
libhdr10plus.so:_ZGTtNSt14overflow_errorC2EPKc
libhdr10plus.so:_ZGTtNSt14overflow_errorC2ERKNSt7__cxx1112basic_stringIcSt11char_traitsIcESaIcEEE
libhdr10plus.so:_ZGTtNSt14overflow_errorD0Ev
libhdr10plus.so:_ZGTtNSt14overflow_errorD1Ev
libhdr10plus.so:_ZGTtNSt14overflow_errorD2Ev
libhdr10plus.so:_ZGTtNSt15underflow_errorC1EPKc
libhdr10plus.so:_ZGTtNSt15underflow_errorC1ERKNSt7__cxx1112basic_stringIcSt11char_traitsIcESaIcEEE
libhdr10plus.so:_ZGTtNSt15underflow_errorC2EPKc
libhdr10plus.so:_ZGTtNSt15underflow_errorC2ERKNSt7__cxx1112basic_stringIcSt11char_traitsIcESaIcEEE
libhdr10plus.so:_ZGTtNSt15underflow_errorD0Ev
libhdr10plus.so:_ZGTtNSt15underflow_errorD1Ev
libhdr10plus.so:_ZGTtNSt15underflow_errorD2Ev
libhdr10plus.so:_ZGTtNSt16invalid_argumentC1EPKc
libhdr10plus.so:_ZGTtNSt16invalid_argumentC1ERKNSt7__cxx1112basic_stringIcSt11char_traitsIcESaIcEEE
libhdr10plus.so:_ZGTtNSt16invalid_argumentC2EPKc
libhdr10plus.so:_ZGTtNSt16invalid_argumentC2ERKNSt7__cxx1112basic_stringIcSt11char_traitsIcESaIcEEE
libhdr10plus.so:_ZGTtNSt16invalid_argumentD0Ev
libhdr10plus.so:_ZGTtNSt16invalid_argumentD1Ev
libhdr10plus.so:_ZGTtNSt16invalid_argumentD2Ev
libhdr10plus.so:_ZN10JsonHelper13readJsonArrayERKNSt7__cxx1112basic_stringIcSt11char_traitsIcESaIcEEE
libhdr10plus.so:_ZN10JsonHelper21validatePathExtensionERNSt7__cxx1112basic_stringIcSt11char_traitsIcESaIcEEE
libhdr10plus.so:_ZN10JsonHelper3addENSt7__cxx1112basic_stringIcSt11char_traitsIcESaIcEEES5_RSt3mapIS5_N6json114JsonESt4lessIS5_ESaISt4pairIKS5_S8_EEE
libhdr10plus.so:_ZN10JsonHelper4dumpESt3mapINSt7__cxx1112basic_stringIcSt11char_traitsIcESaIcEEEN6json114JsonESt4lessIS6_ESaISt4pairIKS6_S8_EEEi
libhdr10plus.so:_ZN10JsonHelper8readJsonENSt7__cxx1112basic_stringIcSt11char_traitsIcESaIcEEE
libhdr10plus.so:_ZN10JsonHelper9printTabsERNSt7__cxx1112basic_stringIcSt11char_traitsIcESaIcEEEi
libhdr10plus.so:_ZN10JsonHelper9writeJsonESt3mapINSt7__cxx1112basic_stringIcSt11char_traitsIcESaIcEEEN6json114JsonESt4lessIS6_ESaISt4pairIKS6_S8_EEES6_
libhdr10plus.so:_ZN10JsonHelper9writeJsonESt6vectorIN6json114JsonESaIS2_EENSt7__cxx1112basic_stringIcSt11char_traitsIcESaIcEEE
libhdr10plus.so:_ZN10__cxxabiv111__terminateEPFvvE
libhdr10plus.so:_ZN10__cxxabiv112__unexpectedEPFvvE
libhdr10plus.so:_ZN10__cxxabiv115__forced_unwindD0Ev
libhdr10plus.so:_ZN10__cxxabiv115__forced_unwindD1Ev
libhdr10plus.so:_ZN10__cxxabiv115__forced_unwindD2Ev
libhdr10plus.so:_ZN10__cxxabiv117__class_type_infoD0Ev
libhdr10plus.so:_ZN10__cxxabiv117__class_type_infoD1Ev
libhdr10plus.so:_ZN10__cxxabiv117__class_type_infoD2Ev
libhdr10plus.so:_ZN10__cxxabiv119__foreign_exceptionD0Ev
libhdr10plus.so:_ZN10__cxxabiv119__foreign_exceptionD1Ev
libhdr10plus.so:_ZN10__cxxabiv119__foreign_exceptionD2Ev
libhdr10plus.so:_ZN10__cxxabiv120__si_class_type_infoD0Ev
libhdr10plus.so:_ZN10__cxxabiv120__si_class_type_infoD1Ev
libhdr10plus.so:_ZN10__cxxabiv120__si_class_type_infoD2Ev
libhdr10plus.so:_ZN10__cxxabiv121__vmi_class_type_infoD0Ev
libhdr10plus.so:_ZN10__cxxabiv121__vmi_class_type_infoD1Ev
libhdr10plus.so:_ZN10__cxxabiv121__vmi_class_type_infoD2Ev
libhdr10plus.so:_ZN16metadataFromJson17fillMetadataArrayERKSt6vectorIN6json114JsonESaIS2_EEiNS_8JsonTypeERPh
libhdr10plus.so:_ZN16metadataFromJson21frameMetadataFromJsonEPKciRPh
libhdr10plus.so:_ZN16metadataFromJson21movieMetadataFromJsonEPKcRPPh
libhdr10plus.so:_ZN16metadataFromJson33extendedInfoFrameMetadataFromJsonEPKciRPh
libhdr10plus.so:_ZN16metadataFromJson38movieExtendedInfoFrameMetadataFromJsonEPKcRPPh
libhdr10plus.so:_ZN16metadataFromJson5clearERPPhi
libhdr10plus.so:_ZN16metadataFromJsonC1Ev
libhdr10plus.so:_ZN16metadataFromJsonC2Ev
libhdr10plus.so:_ZN16metadataFromJsonD1Ev
libhdr10plus.so:_ZN16metadataFromJsonD2Ev
libhdr10plus.so:_ZN6json114Json11parse_multiERKNSt7__cxx1112basic_stringIcSt11char_traitsIcESaIcEEERmRS6_NS_9JsonParseE
libhdr10plus.so:_ZN6json114Json5parseERKNSt7__cxx1112basic_stringIcSt11char_traitsIcESaIcEEERS6_NS_9JsonParseE
libhdr10plus.so:_ZN6json114JsonC1EDn
libhdr10plus.so:_ZN6json114JsonC1EONSt7__cxx1112basic_stringIcSt11char_traitsIcESaIcEEE
libhdr10plus.so:_ZN6json114JsonC1EOSt3mapINSt7__cxx1112basic_stringIcSt11char_traitsIcESaIcEEES0_St4lessIS7_ESaISt4pairIKS7_S0_EEE
libhdr10plus.so:_ZN6json114JsonC1EOSt6vectorIS0_SaIS0_EE
libhdr10plus.so:_ZN6json114JsonC1EPKc
libhdr10plus.so:_ZN6json114JsonC1ERKNSt7__cxx1112basic_stringIcSt11char_traitsIcESaIcEEE
libhdr10plus.so:_ZN6json114JsonC1ERKSt3mapINSt7__cxx1112basic_stringIcSt11char_traitsIcESaIcEEES0_St4lessIS7_ESaISt4pairIKS7_S0_EEE
libhdr10plus.so:_ZN6json114JsonC1ERKSt6vectorIS0_SaIS0_EE
libhdr10plus.so:_ZN6json114JsonC1Eb
libhdr10plus.so:_ZN6json114JsonC1Ed
libhdr10plus.so:_ZN6json114JsonC1Ei
libhdr10plus.so:_ZN6json114JsonC1Ev
libhdr10plus.so:_ZN6json114JsonC2EDn
libhdr10plus.so:_ZN6json114JsonC2EONSt7__cxx1112basic_stringIcSt11char_traitsIcESaIcEEE
libhdr10plus.so:_ZN6json114JsonC2EOSt3mapINSt7__cxx1112basic_stringIcSt11char_traitsIcESaIcEEES0_St4lessIS7_ESaISt4pairIKS7_S0_EEE
libhdr10plus.so:_ZN6json114JsonC2EOSt6vectorIS0_SaIS0_EE
libhdr10plus.so:_ZN6json114JsonC2EPKc
libhdr10plus.so:_ZN6json114JsonC2ERKNSt7__cxx1112basic_stringIcSt11char_traitsIcESaIcEEE
libhdr10plus.so:_ZN6json114JsonC2ERKSt3mapINSt7__cxx1112basic_stringIcSt11char_traitsIcESaIcEEES0_St4lessIS7_ESaISt4pairIKS7_S0_EEE
libhdr10plus.so:_ZN6json114JsonC2ERKSt6vectorIS0_SaIS0_EE
libhdr10plus.so:_ZN6json114JsonC2Eb
libhdr10plus.so:_ZN6json114JsonC2Ed
libhdr10plus.so:_ZN6json114JsonC2Ei
libhdr10plus.so:_ZN6json114JsonC2Ev
libhdr10plus.so:_ZN9__gnu_cxx15__concat_size_tEPcmm
libhdr10plus.so:_ZN9__gnu_cxx15__snprintf_liteEPcmPKcP13__va_list_tag
libhdr10plus.so:_ZN9__gnu_cxx20recursive_init_errorC1Ev
libhdr10plus.so:_ZN9__gnu_cxx20recursive_init_errorC2Ev
libhdr10plus.so:_ZN9__gnu_cxx20recursive_init_errorD0Ev
libhdr10plus.so:_ZN9__gnu_cxx20recursive_init_errorD1Ev
libhdr10plus.so:_ZN9__gnu_cxx20recursive_init_errorD2Ev
libhdr10plus.so:_ZN9__gnu_cxx26__throw_insufficient_spaceEPKcS1_
libhdr10plus.so:_ZN9__gnu_cxx27__verbose_terminate_handlerEv
libhdr10plus.so:_ZN9__gnu_cxx9__freeresEv
libhdr10plus.so:_ZNK10__cxxabiv117__class_type_info10__do_catchEPKSt9type_infoPPvj
libhdr10plus.so:_ZNK10__cxxabiv117__class_type_info11__do_upcastEPKS0_PKvRNS0_15__upcast_resultE
libhdr10plus.so:_ZNK10__cxxabiv117__class_type_info11__do_upcastEPKS0_PPv
libhdr10plus.so:_ZNK10__cxxabiv117__class_type_info12__do_dyncastElNS0_10__sub_kindEPKS0_PKvS3_S5_RNS0_16__dyncast_resultE
libhdr10plus.so:_ZNK10__cxxabiv117__class_type_info20__do_find_public_srcElPKvPKS0_S2_
libhdr10plus.so:_ZNK10__cxxabiv120__si_class_type_info11__do_upcastEPKNS_17__class_type_infoEPKvRNS1_15__upcast_resultE
libhdr10plus.so:_ZNK10__cxxabiv120__si_class_type_info12__do_dyncastElNS_17__class_type_info10__sub_kindEPKS1_PKvS4_S6_RNS1_16__dyncast_resultE
libhdr10plus.so:_ZNK10__cxxabiv120__si_class_type_info20__do_find_public_srcElPKvPKNS_17__class_type_infoES2_
libhdr10plus.so:_ZNK10__cxxabiv121__vmi_class_type_info11__do_upcastEPKNS_17__class_type_infoEPKvRNS1_15__upcast_resultE
libhdr10plus.so:_ZNK10__cxxabiv121__vmi_class_type_info12__do_dyncastElNS_17__class_type_info10__sub_kindEPKS1_PKvS4_S6_RNS1_16__dyncast_resultE
libhdr10plus.so:_ZNK10__cxxabiv121__vmi_class_type_info20__do_find_public_srcElPKvPKNS_17__class_type_infoES2_
libhdr10plus.so:_ZNK6json1110JsonObjectixERKNSt7__cxx1112basic_stringIcSt11char_traitsIcESaIcEEE
libhdr10plus.so:_ZNK6json114Json10bool_valueEv
libhdr10plus.so:_ZNK6json114Json11array_itemsEv
libhdr10plus.so:_ZNK6json114Json12number_valueEv
libhdr10plus.so:_ZNK6json114Json12object_itemsB5cxx11Ev
libhdr10plus.so:_ZNK6json114Json12string_valueB5cxx11Ev
libhdr10plus.so:_ZNK6json114Json4dumpERNSt7__cxx1112basic_stringIcSt11char_traitsIcESaIcEEE
libhdr10plus.so:_ZNK6json114Json4typeEv
libhdr10plus.so:_ZNK6json114Json9has_shapeERKSt16initializer_listISt4pairINSt7__cxx1112basic_stringIcSt11char_traitsIcESaIcEEENS0_4TypeEEERS8_
libhdr10plus.so:_ZNK6json114Json9int_valueEv
libhdr10plus.so:_ZNK6json114JsoneqERKS0_
libhdr10plus.so:_ZNK6json114JsonixERKNSt7__cxx1112basic_stringIcSt11char_traitsIcESaIcEEE
libhdr10plus.so:_ZNK6json114JsonixEm
libhdr10plus.so:_ZNK6json114JsonltERKS0_
libhdr10plus.so:_ZNK6json119JsonArrayixEm
libhdr10plus.so:_ZNK6json119JsonValue10bool_valueEv
libhdr10plus.so:_ZNK6json119JsonValue11array_itemsEv
libhdr10plus.so:_ZNK6json119JsonValue12number_valueEv
libhdr10plus.so:_ZNK6json119JsonValue12object_itemsB5cxx11Ev
libhdr10plus.so:_ZNK6json119JsonValue12string_valueB5cxx11Ev
libhdr10plus.so:_ZNK6json119JsonValue9int_valueEv
libhdr10plus.so:_ZNK6json119JsonValueixERKNSt7__cxx1112basic_stringIcSt11char_traitsIcESaIcEEE
libhdr10plus.so:_ZNK6json119JsonValueixEm
libhdr10plus.so:_ZNKSt10bad_typeid4whatEv
libhdr10plus.so:_ZNKSt10error_code23default_error_conditionEv
libhdr10plus.so:_ZNKSt11__timepunctIcE6_M_putEPcmPKcPK2tm
libhdr10plus.so:_ZNKSt11__timepunctIwE6_M_putEPwmPKwPK2tm
libhdr10plus.so:_ZNKSt11logic_error4whatEv
libhdr10plus.so:_ZNKSt12__basic_fileIcE7is_openEv
libhdr10plus.so:_ZNKSt13bad_exception4whatEv
libhdr10plus.so:_ZNKSt13random_device13_M_getentropyEv
libhdr10plus.so:_ZNKSt13runtime_error4whatEv
libhdr10plus.so:_ZNKSt19__codecvt_utf8_baseIDiE10do_unshiftER11__mbstate_tPcS3_RS3_
libhdr10plus.so:_ZNKSt19__codecvt_utf8_baseIDiE11do_encodingEv
libhdr10plus.so:_ZNKSt19__codecvt_utf8_baseIDiE13do_max_lengthEv
libhdr10plus.so:_ZNKSt19__codecvt_utf8_baseIDiE16do_always_noconvEv
libhdr10plus.so:_ZNKSt19__codecvt_utf8_baseIDiE5do_inER11__mbstate_tPKcS4_RS4_PDiS6_RS6_
libhdr10plus.so:_ZNKSt19__codecvt_utf8_baseIDiE6do_outER11__mbstate_tPKDiS4_RS4_PcS6_RS6_
libhdr10plus.so:_ZNKSt19__codecvt_utf8_baseIDiE9do_lengthER11__mbstate_tPKcS4_m
libhdr10plus.so:_ZNKSt19__codecvt_utf8_baseIDsE10do_unshiftER11__mbstate_tPcS3_RS3_
libhdr10plus.so:_ZNKSt19__codecvt_utf8_baseIDsE11do_encodingEv
libhdr10plus.so:_ZNKSt19__codecvt_utf8_baseIDsE13do_max_lengthEv
libhdr10plus.so:_ZNKSt19__codecvt_utf8_baseIDsE16do_always_noconvEv
libhdr10plus.so:_ZNKSt19__codecvt_utf8_baseIDsE5do_inER11__mbstate_tPKcS4_RS4_PDsS6_RS6_
libhdr10plus.so:_ZNKSt19__codecvt_utf8_baseIDsE6do_outER11__mbstate_tPKDsS4_RS4_PcS6_RS6_
libhdr10plus.so:_ZNKSt19__codecvt_utf8_baseIDsE9do_lengthER11__mbstate_tPKcS4_m
libhdr10plus.so:_ZNKSt19__codecvt_utf8_baseIwE10do_unshiftER11__mbstate_tPcS3_RS3_
libhdr10plus.so:_ZNKSt19__codecvt_utf8_baseIwE11do_encodingEv
libhdr10plus.so:_ZNKSt19__codecvt_utf8_baseIwE13do_max_lengthEv
libhdr10plus.so:_ZNKSt19__codecvt_utf8_baseIwE16do_always_noconvEv
libhdr10plus.so:_ZNKSt19__codecvt_utf8_baseIwE5do_inER11__mbstate_tPKcS4_RS4_PwS6_RS6_
libhdr10plus.so:_ZNKSt19__codecvt_utf8_baseIwE6do_outER11__mbstate_tPKwS4_RS4_PcS6_RS6_
libhdr10plus.so:_ZNKSt19__codecvt_utf8_baseIwE9do_lengthER11__mbstate_tPKcS4_m
libhdr10plus.so:_ZNKSt19__iosfail_type_info11__do_upcastEPKN10__cxxabiv117__class_type_infoEPPv
libhdr10plus.so:_ZNKSt20__codecvt_utf16_baseIDiE10do_unshiftER11__mbstate_tPcS3_RS3_
libhdr10plus.so:_ZNKSt20__codecvt_utf16_baseIDiE11do_encodingEv
libhdr10plus.so:_ZNKSt20__codecvt_utf16_baseIDiE13do_max_lengthEv
libhdr10plus.so:_ZNKSt20__codecvt_utf16_baseIDiE16do_always_noconvEv
libhdr10plus.so:_ZNKSt20__codecvt_utf16_baseIDiE5do_inER11__mbstate_tPKcS4_RS4_PDiS6_RS6_
libhdr10plus.so:_ZNKSt20__codecvt_utf16_baseIDiE6do_outER11__mbstate_tPKDiS4_RS4_PcS6_RS6_
libhdr10plus.so:_ZNKSt20__codecvt_utf16_baseIDiE9do_lengthER11__mbstate_tPKcS4_m
libhdr10plus.so:_ZNKSt20__codecvt_utf16_baseIDsE10do_unshiftER11__mbstate_tPcS3_RS3_
libhdr10plus.so:_ZNKSt20__codecvt_utf16_baseIDsE11do_encodingEv
libhdr10plus.so:_ZNKSt20__codecvt_utf16_baseIDsE13do_max_lengthEv
libhdr10plus.so:_ZNKSt20__codecvt_utf16_baseIDsE16do_always_noconvEv
libhdr10plus.so:_ZNKSt20__codecvt_utf16_baseIDsE5do_inER11__mbstate_tPKcS4_RS4_PDsS6_RS6_
libhdr10plus.so:_ZNKSt20__codecvt_utf16_baseIDsE6do_outER11__mbstate_tPKDsS4_RS4_PcS6_RS6_
libhdr10plus.so:_ZNKSt20__codecvt_utf16_baseIDsE9do_lengthER11__mbstate_tPKcS4_m
libhdr10plus.so:_ZNKSt20__codecvt_utf16_baseIwE10do_unshiftER11__mbstate_tPcS3_RS3_
libhdr10plus.so:_ZNKSt20__codecvt_utf16_baseIwE11do_encodingEv
libhdr10plus.so:_ZNKSt20__codecvt_utf16_baseIwE13do_max_lengthEv
libhdr10plus.so:_ZNKSt20__codecvt_utf16_baseIwE16do_always_noconvEv
libhdr10plus.so:_ZNKSt20__codecvt_utf16_baseIwE5do_inER11__mbstate_tPKcS4_RS4_PwS6_RS6_
libhdr10plus.so:_ZNKSt20__codecvt_utf16_baseIwE6do_outER11__mbstate_tPKwS4_RS4_PcS6_RS6_
libhdr10plus.so:_ZNKSt20__codecvt_utf16_baseIwE9do_lengthER11__mbstate_tPKcS4_m
libhdr10plus.so:_ZNKSt20bad_array_new_length4whatEv
libhdr10plus.so:_ZNKSt25__codecvt_utf8_utf16_baseIDiE10do_unshiftER11__mbstate_tPcS3_RS3_
libhdr10plus.so:_ZNKSt25__codecvt_utf8_utf16_baseIDiE11do_encodingEv
libhdr10plus.so:_ZNKSt25__codecvt_utf8_utf16_baseIDiE13do_max_lengthEv
libhdr10plus.so:_ZNKSt25__codecvt_utf8_utf16_baseIDiE16do_always_noconvEv
libhdr10plus.so:_ZNKSt25__codecvt_utf8_utf16_baseIDiE5do_inER11__mbstate_tPKcS4_RS4_PDiS6_RS6_
libhdr10plus.so:_ZNKSt25__codecvt_utf8_utf16_baseIDiE6do_outER11__mbstate_tPKDiS4_RS4_PcS6_RS6_
libhdr10plus.so:_ZNKSt25__codecvt_utf8_utf16_baseIDiE9do_lengthER11__mbstate_tPKcS4_m
libhdr10plus.so:_ZNKSt25__codecvt_utf8_utf16_baseIDsE10do_unshiftER11__mbstate_tPcS3_RS3_
libhdr10plus.so:_ZNKSt25__codecvt_utf8_utf16_baseIDsE11do_encodingEv
libhdr10plus.so:_ZNKSt25__codecvt_utf8_utf16_baseIDsE13do_max_lengthEv
libhdr10plus.so:_ZNKSt25__codecvt_utf8_utf16_baseIDsE16do_always_noconvEv
libhdr10plus.so:_ZNKSt25__codecvt_utf8_utf16_baseIDsE5do_inER11__mbstate_tPKcS4_RS4_PDsS6_RS6_
libhdr10plus.so:_ZNKSt25__codecvt_utf8_utf16_baseIDsE6do_outER11__mbstate_tPKDsS4_RS4_PcS6_RS6_
libhdr10plus.so:_ZNKSt25__codecvt_utf8_utf16_baseIDsE9do_lengthER11__mbstate_tPKcS4_m
libhdr10plus.so:_ZNKSt25__codecvt_utf8_utf16_baseIwE10do_unshiftER11__mbstate_tPcS3_RS3_
libhdr10plus.so:_ZNKSt25__codecvt_utf8_utf16_baseIwE11do_encodingEv
libhdr10plus.so:_ZNKSt25__codecvt_utf8_utf16_baseIwE13do_max_lengthEv
libhdr10plus.so:_ZNKSt25__codecvt_utf8_utf16_baseIwE16do_always_noconvEv
libhdr10plus.so:_ZNKSt25__codecvt_utf8_utf16_baseIwE5do_inER11__mbstate_tPKcS4_RS4_PwS6_RS6_
libhdr10plus.so:_ZNKSt25__codecvt_utf8_utf16_baseIwE6do_outER11__mbstate_tPKwS4_RS4_PcS6_RS6_
libhdr10plus.so:_ZNKSt25__codecvt_utf8_utf16_baseIwE9do_lengthER11__mbstate_tPKcS4_m
libhdr10plus.so:_ZNKSt3_V214error_category10_M_messageB5cxx11Ei
libhdr10plus.so:_ZNKSt3_V214error_category10_M_messageEi
libhdr10plus.so:_ZNKSt3_V214error_category10equivalentERKSt10error_codei
libhdr10plus.so:_ZNKSt3_V214error_category10equivalentEiRKSt15error_condition
libhdr10plus.so:_ZNKSt3_V214error_category23default_error_conditionEi
libhdr10plus.so:_ZNKSt5ctypeIcE10do_tolowerEPcPKc
libhdr10plus.so:_ZNKSt5ctypeIcE10do_tolowerEc
libhdr10plus.so:_ZNKSt5ctypeIcE10do_toupperEPcPKc
libhdr10plus.so:_ZNKSt5ctypeIcE10do_toupperEc
libhdr10plus.so:_ZNKSt5ctypeIcE13_M_widen_initEv
libhdr10plus.so:_ZNKSt5ctypeIcE14_M_narrow_initEv
libhdr10plus.so:_ZNKSt5ctypeIwE10do_scan_isEtPKwS2_
libhdr10plus.so:_ZNKSt5ctypeIwE10do_tolowerEPwPKw
libhdr10plus.so:_ZNKSt5ctypeIwE10do_tolowerEw
libhdr10plus.so:_ZNKSt5ctypeIwE10do_toupperEPwPKw
libhdr10plus.so:_ZNKSt5ctypeIwE10do_toupperEw
libhdr10plus.so:_ZNKSt5ctypeIwE11do_scan_notEtPKwS2_
libhdr10plus.so:_ZNKSt5ctypeIwE19_M_convert_to_wmaskEt
libhdr10plus.so:_ZNKSt5ctypeIwE5do_isEPKwS2_Pt
libhdr10plus.so:_ZNKSt5ctypeIwE5do_isEtw
libhdr10plus.so:_ZNKSt5ctypeIwE8do_widenEPKcS2_Pw
libhdr10plus.so:_ZNKSt5ctypeIwE8do_widenEc
libhdr10plus.so:_ZNKSt5ctypeIwE9do_narrowEPKwS2_cPc
libhdr10plus.so:_ZNKSt5ctypeIwE9do_narrowEwc
libhdr10plus.so:_ZNKSt6locale2id5_M_idEv
libhdr10plus.so:_ZNKSt6locale4nameB5cxx11Ev
libhdr10plus.so:_ZNKSt6locale4nameEv
libhdr10plus.so:_ZNKSt6locale5facet11_M_cow_shimEPKNS_2idE
libhdr10plus.so:_ZNKSt6locale5facet11_M_sso_shimEPKNS_2idE
libhdr10plus.so:_ZNKSt6localeeqERKS_
libhdr10plus.so:_ZNKSt7__cxx117collateIcE10_M_compareEPKcS3_
libhdr10plus.so:_ZNKSt7__cxx117collateIcE12_M_transformEPcPKcm
libhdr10plus.so:_ZNKSt7__cxx117collateIwE10_M_compareEPKwS3_
libhdr10plus.so:_ZNKSt7__cxx117collateIwE12_M_transformEPwPKwm
libhdr10plus.so:_ZNKSt7__cxx118messagesIcE6do_getEiiiRKNS_12basic_stringIcSt11char_traitsIcESaIcEEE
libhdr10plus.so:_ZNKSt7__cxx118messagesIcE7do_openERKNS_12basic_stringIcSt11char_traitsIcESaIcEEERKSt6locale
libhdr10plus.so:_ZNKSt7__cxx118messagesIcE8do_closeEi
libhdr10plus.so:_ZNKSt7__cxx118messagesIwE6do_getEiiiRKNS_12basic_stringIwSt11char_traitsIwESaIwEEE
libhdr10plus.so:_ZNKSt7__cxx118messagesIwE7do_openERKNS_12basic_stringIcSt11char_traitsIcESaIcEEERKSt6locale
libhdr10plus.so:_ZNKSt7__cxx118messagesIwE8do_closeEi
libhdr10plus.so:_ZNKSt7codecvtIDiDu11__mbstate_tE10do_unshiftERS0_PDuS3_RS3_
libhdr10plus.so:_ZNKSt7codecvtIDiDu11__mbstate_tE11do_encodingEv
libhdr10plus.so:_ZNKSt7codecvtIDiDu11__mbstate_tE13do_max_lengthEv
libhdr10plus.so:_ZNKSt7codecvtIDiDu11__mbstate_tE16do_always_noconvEv
libhdr10plus.so:_ZNKSt7codecvtIDiDu11__mbstate_tE5do_inERS0_PKDuS4_RS4_PDiS6_RS6_
libhdr10plus.so:_ZNKSt7codecvtIDiDu11__mbstate_tE6do_outERS0_PKDiS4_RS4_PDuS6_RS6_
libhdr10plus.so:_ZNKSt7codecvtIDiDu11__mbstate_tE9do_lengthERS0_PKDuS4_m
libhdr10plus.so:_ZNKSt7codecvtIDic11__mbstate_tE10do_unshiftERS0_PcS3_RS3_
libhdr10plus.so:_ZNKSt7codecvtIDic11__mbstate_tE11do_encodingEv
libhdr10plus.so:_ZNKSt7codecvtIDic11__mbstate_tE13do_max_lengthEv
libhdr10plus.so:_ZNKSt7codecvtIDic11__mbstate_tE16do_always_noconvEv
libhdr10plus.so:_ZNKSt7codecvtIDic11__mbstate_tE5do_inERS0_PKcS4_RS4_PDiS6_RS6_
libhdr10plus.so:_ZNKSt7codecvtIDic11__mbstate_tE6do_outERS0_PKDiS4_RS4_PcS6_RS6_
libhdr10plus.so:_ZNKSt7codecvtIDic11__mbstate_tE9do_lengthERS0_PKcS4_m
libhdr10plus.so:_ZNKSt7codecvtIDsDu11__mbstate_tE10do_unshiftERS0_PDuS3_RS3_
libhdr10plus.so:_ZNKSt7codecvtIDsDu11__mbstate_tE11do_encodingEv
libhdr10plus.so:_ZNKSt7codecvtIDsDu11__mbstate_tE13do_max_lengthEv
libhdr10plus.so:_ZNKSt7codecvtIDsDu11__mbstate_tE16do_always_noconvEv
libhdr10plus.so:_ZNKSt7codecvtIDsDu11__mbstate_tE5do_inERS0_PKDuS4_RS4_PDsS6_RS6_
libhdr10plus.so:_ZNKSt7codecvtIDsDu11__mbstate_tE6do_outERS0_PKDsS4_RS4_PDuS6_RS6_
libhdr10plus.so:_ZNKSt7codecvtIDsDu11__mbstate_tE9do_lengthERS0_PKDuS4_m
libhdr10plus.so:_ZNKSt7codecvtIDsc11__mbstate_tE10do_unshiftERS0_PcS3_RS3_
libhdr10plus.so:_ZNKSt7codecvtIDsc11__mbstate_tE11do_encodingEv
libhdr10plus.so:_ZNKSt7codecvtIDsc11__mbstate_tE13do_max_lengthEv
libhdr10plus.so:_ZNKSt7codecvtIDsc11__mbstate_tE16do_always_noconvEv
libhdr10plus.so:_ZNKSt7codecvtIDsc11__mbstate_tE5do_inERS0_PKcS4_RS4_PDsS6_RS6_
libhdr10plus.so:_ZNKSt7codecvtIDsc11__mbstate_tE6do_outERS0_PKDsS4_RS4_PcS6_RS6_
libhdr10plus.so:_ZNKSt7codecvtIDsc11__mbstate_tE9do_lengthERS0_PKcS4_m
libhdr10plus.so:_ZNKSt7codecvtIcc11__mbstate_tE10do_unshiftERS0_PcS3_RS3_
libhdr10plus.so:_ZNKSt7codecvtIcc11__mbstate_tE11do_encodingEv
libhdr10plus.so:_ZNKSt7codecvtIcc11__mbstate_tE13do_max_lengthEv
libhdr10plus.so:_ZNKSt7codecvtIcc11__mbstate_tE16do_always_noconvEv
libhdr10plus.so:_ZNKSt7codecvtIcc11__mbstate_tE5do_inERS0_PKcS4_RS4_PcS6_RS6_
libhdr10plus.so:_ZNKSt7codecvtIcc11__mbstate_tE6do_outERS0_PKcS4_RS4_PcS6_RS6_
libhdr10plus.so:_ZNKSt7codecvtIcc11__mbstate_tE9do_lengthERS0_PKcS4_m
libhdr10plus.so:_ZNKSt7codecvtIwc11__mbstate_tE10do_unshiftERS0_PcS3_RS3_
libhdr10plus.so:_ZNKSt7codecvtIwc11__mbstate_tE11do_encodingEv
libhdr10plus.so:_ZNKSt7codecvtIwc11__mbstate_tE13do_max_lengthEv
libhdr10plus.so:_ZNKSt7codecvtIwc11__mbstate_tE16do_always_noconvEv
libhdr10plus.so:_ZNKSt7codecvtIwc11__mbstate_tE5do_inERS0_PKcS4_RS4_PwS6_RS6_
libhdr10plus.so:_ZNKSt7codecvtIwc11__mbstate_tE6do_outERS0_PKwS4_RS4_PcS6_RS6_
libhdr10plus.so:_ZNKSt7codecvtIwc11__mbstate_tE9do_lengthERS0_PKcS4_m
libhdr10plus.so:_ZNKSt7collateIcE10_M_compareEPKcS2_
libhdr10plus.so:_ZNKSt7collateIcE12_M_transformEPcPKcm
libhdr10plus.so:_ZNKSt7collateIwE10_M_compareEPKwS2_
libhdr10plus.so:_ZNKSt7collateIwE12_M_transformEPwPKwm
libhdr10plus.so:_ZNKSt8Catalogs6_M_getEi
libhdr10plus.so:_ZNKSt8bad_cast4whatEv
libhdr10plus.so:_ZNKSt8ios_base7failure4whatEv
libhdr10plus.so:_ZNKSt8ios_base7failureB5cxx114whatEv
libhdr10plus.so:_ZNKSt8messagesIcE6do_getEiiiRKSs
libhdr10plus.so:_ZNKSt8messagesIcE7do_openERKSsRKSt6locale
libhdr10plus.so:_ZNKSt8messagesIcE8do_closeEi
libhdr10plus.so:_ZNKSt8messagesIwE6do_getEiiiRKSbIwSt11char_traitsIwESaIwEE
libhdr10plus.so:_ZNKSt8messagesIwE7do_openERKSsRKSt6locale
libhdr10plus.so:_ZNKSt8messagesIwE8do_closeEi
libhdr10plus.so:_ZNKSt9bad_alloc4whatEv
libhdr10plus.so:_ZNKSt9exception4whatEv
libhdr10plus.so:_ZNKSt9type_info10__do_catchEPKS_PPvj
libhdr10plus.so:_ZNKSt9type_info11__do_upcastEPKN10__cxxabiv117__class_type_infoEPPv
libhdr10plus.so:_ZNKSt9type_info14__is_pointer_pEv
libhdr10plus.so:_ZNKSt9type_info15__is_function_pEv
libhdr10plus.so:_ZNSi6ignoreEl
libhdr10plus.so:_ZNSi6ignoreEli
libhdr10plus.so:_ZNSi7getlineEPclc
libhdr10plus.so:_ZNSt10__num_base15_S_format_floatERKSt8ios_basePcc
libhdr10plus.so:_ZNSt10bad_typeidD0Ev
libhdr10plus.so:_ZNSt10bad_typeidD1Ev
libhdr10plus.so:_ZNSt10bad_typeidD2Ev
libhdr10plus.so:_ZNSt10money_base20_S_construct_patternEccc
libhdr10plus.so:_ZNSt10moneypunctIcLb0EE24_M_initialize_moneypunctEP15__locale_structPKc
libhdr10plus.so:_ZNSt10moneypunctIcLb0EED0Ev
libhdr10plus.so:_ZNSt10moneypunctIcLb0EED1Ev
libhdr10plus.so:_ZNSt10moneypunctIcLb0EED2Ev
libhdr10plus.so:_ZNSt10moneypunctIcLb1EE24_M_initialize_moneypunctEP15__locale_structPKc
libhdr10plus.so:_ZNSt10moneypunctIcLb1EED0Ev
libhdr10plus.so:_ZNSt10moneypunctIcLb1EED1Ev
libhdr10plus.so:_ZNSt10moneypunctIcLb1EED2Ev
libhdr10plus.so:_ZNSt10moneypunctIwLb0EE24_M_initialize_moneypunctEP15__locale_structPKc
libhdr10plus.so:_ZNSt10moneypunctIwLb0EED0Ev
libhdr10plus.so:_ZNSt10moneypunctIwLb0EED1Ev
libhdr10plus.so:_ZNSt10moneypunctIwLb0EED2Ev
libhdr10plus.so:_ZNSt10moneypunctIwLb1EE24_M_initialize_moneypunctEP15__locale_structPKc
libhdr10plus.so:_ZNSt10moneypunctIwLb1EED0Ev
libhdr10plus.so:_ZNSt10moneypunctIwLb1EED1Ev
libhdr10plus.so:_ZNSt10moneypunctIwLb1EED2Ev
libhdr10plus.so:_ZNSt11__timepunctIcE23_M_initialize_timepunctEP15__locale_struct
libhdr10plus.so:_ZNSt11__timepunctIwE23_M_initialize_timepunctEP15__locale_struct
libhdr10plus.so:_ZNSt11logic_errorC1EOS_
libhdr10plus.so:_ZNSt11logic_errorC1EPKc
libhdr10plus.so:_ZNSt11logic_errorC1ERKNSt7__cxx1112basic_stringIcSt11char_traitsIcESaIcEEE
libhdr10plus.so:_ZNSt11logic_errorC1ERKS_
libhdr10plus.so:_ZNSt11logic_errorC1ERKSs
libhdr10plus.so:_ZNSt11logic_errorC2EOS_
libhdr10plus.so:_ZNSt11logic_errorC2EPKc
libhdr10plus.so:_ZNSt11logic_errorC2ERKNSt7__cxx1112basic_stringIcSt11char_traitsIcESaIcEEE
libhdr10plus.so:_ZNSt11logic_errorC2ERKS_
libhdr10plus.so:_ZNSt11logic_errorC2ERKSs
libhdr10plus.so:_ZNSt11logic_errorD0Ev
libhdr10plus.so:_ZNSt11logic_errorD1Ev
libhdr10plus.so:_ZNSt11logic_errorD2Ev
libhdr10plus.so:_ZNSt11logic_erroraSEOS_
libhdr10plus.so:_ZNSt11logic_erroraSERKS_
libhdr10plus.so:_ZNSt11range_errorC1EPKc
libhdr10plus.so:_ZNSt11range_errorC1ERKNSt7__cxx1112basic_stringIcSt11char_traitsIcESaIcEEE
libhdr10plus.so:_ZNSt11range_errorC1ERKSs
libhdr10plus.so:_ZNSt11range_errorC2EPKc
libhdr10plus.so:_ZNSt11range_errorC2ERKNSt7__cxx1112basic_stringIcSt11char_traitsIcESaIcEEE
libhdr10plus.so:_ZNSt11range_errorC2ERKSs
libhdr10plus.so:_ZNSt11range_errorD0Ev
libhdr10plus.so:_ZNSt11range_errorD1Ev
libhdr10plus.so:_ZNSt11range_errorD2Ev
libhdr10plus.so:_ZNSt12__basic_fileIcE2fdEv
libhdr10plus.so:_ZNSt12__basic_fileIcE4fileEv
libhdr10plus.so:_ZNSt12__basic_fileIcE4openEPKcSt13_Ios_Openmodei
libhdr10plus.so:_ZNSt12__basic_fileIcE4syncEv
libhdr10plus.so:_ZNSt12__basic_fileIcE5closeEv
libhdr10plus.so:_ZNSt12__basic_fileIcE6xsgetnEPcl
libhdr10plus.so:_ZNSt12__basic_fileIcE6xsputnEPKcl
libhdr10plus.so:_ZNSt12__basic_fileIcE7seekoffElSt12_Ios_Seekdir
libhdr10plus.so:_ZNSt12__basic_fileIcE8sys_openEP8_IO_FILESt13_Ios_Openmode
libhdr10plus.so:_ZNSt12__basic_fileIcE8sys_openEiSt13_Ios_Openmode
libhdr10plus.so:_ZNSt12__basic_fileIcE8xsputn_2EPKclS2_l
libhdr10plus.so:_ZNSt12__basic_fileIcE9showmanycEv
libhdr10plus.so:_ZNSt12__basic_fileIcEC1EP15pthread_mutex_t
libhdr10plus.so:_ZNSt12__basic_fileIcEC2EP15pthread_mutex_t
libhdr10plus.so:_ZNSt12__basic_fileIcED1Ev
libhdr10plus.so:_ZNSt12__basic_fileIcED2Ev
libhdr10plus.so:_ZNSt12__cow_stringC1EOS_
libhdr10plus.so:_ZNSt12__cow_stringC1EPKcm
libhdr10plus.so:_ZNSt12__cow_stringC1ERKNSt7__cxx1112basic_stringIcSt11char_traitsIcESaIcEEE
libhdr10plus.so:_ZNSt12__cow_stringC1ERKS_
libhdr10plus.so:_ZNSt12__cow_stringC1ERKSs
libhdr10plus.so:_ZNSt12__cow_stringC1Ev
libhdr10plus.so:_ZNSt12__cow_stringC2EOS_
libhdr10plus.so:_ZNSt12__cow_stringC2EPKcm
libhdr10plus.so:_ZNSt12__cow_stringC2ERKNSt7__cxx1112basic_stringIcSt11char_traitsIcESaIcEEE
libhdr10plus.so:_ZNSt12__cow_stringC2ERKS_
libhdr10plus.so:_ZNSt12__cow_stringC2ERKSs
libhdr10plus.so:_ZNSt12__cow_stringC2Ev
libhdr10plus.so:_ZNSt12__cow_stringD1Ev
libhdr10plus.so:_ZNSt12__cow_stringD2Ev
libhdr10plus.so:_ZNSt12__cow_stringaSEOS_
libhdr10plus.so:_ZNSt12__cow_stringaSERKS_
libhdr10plus.so:_ZNSt12__sso_stringC1EOS_
libhdr10plus.so:_ZNSt12__sso_stringC1EPKcm
libhdr10plus.so:_ZNSt12__sso_stringC1ERKNSt7__cxx1112basic_stringIcSt11char_traitsIcESaIcEEE
libhdr10plus.so:_ZNSt12__sso_stringC1ERKS_
libhdr10plus.so:_ZNSt12__sso_stringC1ERKSs
libhdr10plus.so:_ZNSt12__sso_stringC1Ev
libhdr10plus.so:_ZNSt12__sso_stringC2EOS_
libhdr10plus.so:_ZNSt12__sso_stringC2EPKcm
libhdr10plus.so:_ZNSt12__sso_stringC2ERKNSt7__cxx1112basic_stringIcSt11char_traitsIcESaIcEEE
libhdr10plus.so:_ZNSt12__sso_stringC2ERKS_
libhdr10plus.so:_ZNSt12__sso_stringC2ERKSs
libhdr10plus.so:_ZNSt12__sso_stringC2Ev
libhdr10plus.so:_ZNSt12__sso_stringD1Ev
libhdr10plus.so:_ZNSt12__sso_stringD2Ev
libhdr10plus.so:_ZNSt12__sso_stringaSEOS_
libhdr10plus.so:_ZNSt12__sso_stringaSERKS_
libhdr10plus.so:_ZNSt12ctype_bynameIcEC1EPKcm
libhdr10plus.so:_ZNSt12ctype_bynameIcEC1ERKNSt7__cxx1112basic_stringIcSt11char_traitsIcESaIcEEEm
libhdr10plus.so:_ZNSt12ctype_bynameIcEC1ERKSsm
libhdr10plus.so:_ZNSt12ctype_bynameIcEC2EPKcm
libhdr10plus.so:_ZNSt12ctype_bynameIcEC2ERKNSt7__cxx1112basic_stringIcSt11char_traitsIcESaIcEEEm
libhdr10plus.so:_ZNSt12ctype_bynameIcEC2ERKSsm
libhdr10plus.so:_ZNSt12ctype_bynameIcED0Ev
libhdr10plus.so:_ZNSt12ctype_bynameIcED1Ev
libhdr10plus.so:_ZNSt12ctype_bynameIcED2Ev
libhdr10plus.so:_ZNSt12ctype_bynameIwEC1EPKcm
libhdr10plus.so:_ZNSt12ctype_bynameIwEC1ERKNSt7__cxx1112basic_stringIcSt11char_traitsIcESaIcEEEm
libhdr10plus.so:_ZNSt12ctype_bynameIwEC1ERKSsm
libhdr10plus.so:_ZNSt12ctype_bynameIwEC2EPKcm
libhdr10plus.so:_ZNSt12ctype_bynameIwEC2ERKNSt7__cxx1112basic_stringIcSt11char_traitsIcESaIcEEEm
libhdr10plus.so:_ZNSt12ctype_bynameIwEC2ERKSsm
libhdr10plus.so:_ZNSt12ctype_bynameIwED0Ev
libhdr10plus.so:_ZNSt12ctype_bynameIwED1Ev
libhdr10plus.so:_ZNSt12ctype_bynameIwED2Ev
libhdr10plus.so:_ZNSt12domain_errorC1EPKc
libhdr10plus.so:_ZNSt12domain_errorC1ERKNSt7__cxx1112basic_stringIcSt11char_traitsIcESaIcEEE
libhdr10plus.so:_ZNSt12domain_errorC1ERKSs
libhdr10plus.so:_ZNSt12domain_errorC2EPKc
libhdr10plus.so:_ZNSt12domain_errorC2ERKNSt7__cxx1112basic_stringIcSt11char_traitsIcESaIcEEE
libhdr10plus.so:_ZNSt12domain_errorC2ERKSs
libhdr10plus.so:_ZNSt12domain_errorD0Ev
libhdr10plus.so:_ZNSt12domain_errorD1Ev
libhdr10plus.so:_ZNSt12domain_errorD2Ev
libhdr10plus.so:_ZNSt12length_errorC1EPKc
libhdr10plus.so:_ZNSt12length_errorC1ERKNSt7__cxx1112basic_stringIcSt11char_traitsIcESaIcEEE
libhdr10plus.so:_ZNSt12length_errorC1ERKSs
libhdr10plus.so:_ZNSt12length_errorC2EPKc
libhdr10plus.so:_ZNSt12length_errorC2ERKNSt7__cxx1112basic_stringIcSt11char_traitsIcESaIcEEE
libhdr10plus.so:_ZNSt12length_errorC2ERKSs
libhdr10plus.so:_ZNSt12length_errorD0Ev
libhdr10plus.so:_ZNSt12length_errorD1Ev
libhdr10plus.so:_ZNSt12length_errorD2Ev
libhdr10plus.so:_ZNSt12out_of_rangeC1EPKc
libhdr10plus.so:_ZNSt12out_of_rangeC1ERKNSt7__cxx1112basic_stringIcSt11char_traitsIcESaIcEEE
libhdr10plus.so:_ZNSt12out_of_rangeC1ERKSs
libhdr10plus.so:_ZNSt12out_of_rangeC2EPKc
libhdr10plus.so:_ZNSt12out_of_rangeC2ERKNSt7__cxx1112basic_stringIcSt11char_traitsIcESaIcEEE
libhdr10plus.so:_ZNSt12out_of_rangeC2ERKSs
libhdr10plus.so:_ZNSt12out_of_rangeD0Ev
libhdr10plus.so:_ZNSt12out_of_rangeD1Ev
libhdr10plus.so:_ZNSt12out_of_rangeD2Ev
libhdr10plus.so:_ZNSt12system_errorD0Ev
libhdr10plus.so:_ZNSt12system_errorD1Ev
libhdr10plus.so:_ZNSt12system_errorD2Ev
libhdr10plus.so:_ZNSt13bad_exceptionD0Ev
libhdr10plus.so:_ZNSt13bad_exceptionD1Ev
libhdr10plus.so:_ZNSt13bad_exceptionD2Ev
libhdr10plus.so:_ZNSt13basic_istreamIwSt11char_traitsIwEE6ignoreEl
libhdr10plus.so:_ZNSt13basic_istreamIwSt11char_traitsIwEE6ignoreElj
libhdr10plus.so:_ZNSt13basic_istreamIwSt11char_traitsIwEE7getlineEPwlw
libhdr10plus.so:_ZNSt13random_device14_M_init_pretr1ERKNSt7__cxx1112basic_stringIcSt11char_traitsIcESaIcEEE
libhdr10plus.so:_ZNSt13random_device14_M_init_pretr1ERKSs
libhdr10plus.so:_ZNSt13random_device16_M_getval_pretr1Ev
libhdr10plus.so:_ZNSt13random_device7_M_finiEv
libhdr10plus.so:_ZNSt13random_device7_M_initEPKcm
libhdr10plus.so:_ZNSt13random_device7_M_initERKNSt7__cxx1112basic_stringIcSt11char_traitsIcESaIcEEE
libhdr10plus.so:_ZNSt13random_device7_M_initERKSs
libhdr10plus.so:_ZNSt13random_device9_M_getvalEv
libhdr10plus.so:_ZNSt13runtime_errorC1EOS_
libhdr10plus.so:_ZNSt13runtime_errorC1EPKc
libhdr10plus.so:_ZNSt13runtime_errorC1ERKNSt7__cxx1112basic_stringIcSt11char_traitsIcESaIcEEE
libhdr10plus.so:_ZNSt13runtime_errorC1ERKS_
libhdr10plus.so:_ZNSt13runtime_errorC1ERKSs
libhdr10plus.so:_ZNSt13runtime_errorC2EOS_
libhdr10plus.so:_ZNSt13runtime_errorC2EPKc
libhdr10plus.so:_ZNSt13runtime_errorC2ERKNSt7__cxx1112basic_stringIcSt11char_traitsIcESaIcEEE
libhdr10plus.so:_ZNSt13runtime_errorC2ERKS_
libhdr10plus.so:_ZNSt13runtime_errorC2ERKSs
libhdr10plus.so:_ZNSt13runtime_errorD0Ev
libhdr10plus.so:_ZNSt13runtime_errorD1Ev
libhdr10plus.so:_ZNSt13runtime_errorD2Ev
libhdr10plus.so:_ZNSt13runtime_erroraSEOS_
libhdr10plus.so:_ZNSt13runtime_erroraSERKS_
libhdr10plus.so:_ZNSt14overflow_errorC1EPKc
libhdr10plus.so:_ZNSt14overflow_errorC1ERKNSt7__cxx1112basic_stringIcSt11char_traitsIcESaIcEEE
libhdr10plus.so:_ZNSt14overflow_errorC1ERKSs
libhdr10plus.so:_ZNSt14overflow_errorC2EPKc
libhdr10plus.so:_ZNSt14overflow_errorC2ERKNSt7__cxx1112basic_stringIcSt11char_traitsIcESaIcEEE
libhdr10plus.so:_ZNSt14overflow_errorC2ERKSs
libhdr10plus.so:_ZNSt14overflow_errorD0Ev
libhdr10plus.so:_ZNSt14overflow_errorD1Ev
libhdr10plus.so:_ZNSt14overflow_errorD2Ev
libhdr10plus.so:_ZNSt15underflow_errorC1EPKc
libhdr10plus.so:_ZNSt15underflow_errorC1ERKNSt7__cxx1112basic_stringIcSt11char_traitsIcESaIcEEE
libhdr10plus.so:_ZNSt15underflow_errorC1ERKSs
libhdr10plus.so:_ZNSt15underflow_errorC2EPKc
libhdr10plus.so:_ZNSt15underflow_errorC2ERKNSt7__cxx1112basic_stringIcSt11char_traitsIcESaIcEEE
libhdr10plus.so:_ZNSt15underflow_errorC2ERKSs
libhdr10plus.so:_ZNSt15underflow_errorD0Ev
libhdr10plus.so:_ZNSt15underflow_errorD1Ev
libhdr10plus.so:_ZNSt15underflow_errorD2Ev
libhdr10plus.so:_ZNSt16invalid_argumentC1EPKc
libhdr10plus.so:_ZNSt16invalid_argumentC1ERKNSt7__cxx1112basic_stringIcSt11char_traitsIcESaIcEEE
libhdr10plus.so:_ZNSt16invalid_argumentC1ERKSs
libhdr10plus.so:_ZNSt16invalid_argumentC2EPKc
libhdr10plus.so:_ZNSt16invalid_argumentC2ERKNSt7__cxx1112basic_stringIcSt11char_traitsIcESaIcEEE
libhdr10plus.so:_ZNSt16invalid_argumentC2ERKSs
libhdr10plus.so:_ZNSt16invalid_argumentD0Ev
libhdr10plus.so:_ZNSt16invalid_argumentD1Ev
libhdr10plus.so:_ZNSt16invalid_argumentD2Ev
libhdr10plus.so:_ZNSt19__codecvt_utf8_baseIDiED0Ev
libhdr10plus.so:_ZNSt19__codecvt_utf8_baseIDiED1Ev
libhdr10plus.so:_ZNSt19__codecvt_utf8_baseIDiED2Ev
libhdr10plus.so:_ZNSt19__codecvt_utf8_baseIDsED0Ev
libhdr10plus.so:_ZNSt19__codecvt_utf8_baseIDsED1Ev
libhdr10plus.so:_ZNSt19__codecvt_utf8_baseIDsED2Ev
libhdr10plus.so:_ZNSt19__codecvt_utf8_baseIwED0Ev
libhdr10plus.so:_ZNSt19__codecvt_utf8_baseIwED1Ev
libhdr10plus.so:_ZNSt19__codecvt_utf8_baseIwED2Ev
libhdr10plus.so:_ZNSt19__iosfail_type_infoD0Ev
libhdr10plus.so:_ZNSt19__iosfail_type_infoD1Ev
libhdr10plus.so:_ZNSt19__iosfail_type_infoD2Ev
libhdr10plus.so:_ZNSt20__codecvt_utf16_baseIDiED0Ev
libhdr10plus.so:_ZNSt20__codecvt_utf16_baseIDiED1Ev
libhdr10plus.so:_ZNSt20__codecvt_utf16_baseIDiED2Ev
libhdr10plus.so:_ZNSt20__codecvt_utf16_baseIDsED0Ev
libhdr10plus.so:_ZNSt20__codecvt_utf16_baseIDsED1Ev
libhdr10plus.so:_ZNSt20__codecvt_utf16_baseIDsED2Ev
libhdr10plus.so:_ZNSt20__codecvt_utf16_baseIwED0Ev
libhdr10plus.so:_ZNSt20__codecvt_utf16_baseIwED1Ev
libhdr10plus.so:_ZNSt20__codecvt_utf16_baseIwED2Ev
libhdr10plus.so:_ZNSt20bad_array_new_lengthD0Ev
libhdr10plus.so:_ZNSt20bad_array_new_lengthD1Ev
libhdr10plus.so:_ZNSt20bad_array_new_lengthD2Ev
libhdr10plus.so:_ZNSt25__codecvt_utf8_utf16_baseIDiED0Ev
libhdr10plus.so:_ZNSt25__codecvt_utf8_utf16_baseIDiED1Ev
libhdr10plus.so:_ZNSt25__codecvt_utf8_utf16_baseIDiED2Ev
libhdr10plus.so:_ZNSt25__codecvt_utf8_utf16_baseIDsED0Ev
libhdr10plus.so:_ZNSt25__codecvt_utf8_utf16_baseIDsED1Ev
libhdr10plus.so:_ZNSt25__codecvt_utf8_utf16_baseIDsED2Ev
libhdr10plus.so:_ZNSt25__codecvt_utf8_utf16_baseIwED0Ev
libhdr10plus.so:_ZNSt25__codecvt_utf8_utf16_baseIwED1Ev
libhdr10plus.so:_ZNSt25__codecvt_utf8_utf16_baseIwED2Ev
libhdr10plus.so:_ZNSt3_V214error_categoryD0Ev
libhdr10plus.so:_ZNSt3_V214error_categoryD1Ev
libhdr10plus.so:_ZNSt3_V214error_categoryD2Ev
libhdr10plus.so:_ZNSt3_V215system_categoryEv
libhdr10plus.so:_ZNSt3_V216generic_categoryEv
libhdr10plus.so:_ZNSt5ctypeIcE13classic_tableEv
libhdr10plus.so:_ZNSt5ctypeIcEC1EP15__locale_structPKtbm
libhdr10plus.so:_ZNSt5ctypeIcEC1EPKtbm
libhdr10plus.so:_ZNSt5ctypeIcEC2EP15__locale_structPKtbm
libhdr10plus.so:_ZNSt5ctypeIcEC2EPKtbm
libhdr10plus.so:_ZNSt5ctypeIcED0Ev
libhdr10plus.so:_ZNSt5ctypeIcED1Ev
libhdr10plus.so:_ZNSt5ctypeIcED2Ev
libhdr10plus.so:_ZNSt5ctypeIwE19_M_initialize_ctypeEv
libhdr10plus.so:_ZNSt5ctypeIwEC1EP15__locale_structm
libhdr10plus.so:_ZNSt5ctypeIwEC1Em
libhdr10plus.so:_ZNSt5ctypeIwEC2EP15__locale_structm
libhdr10plus.so:_ZNSt5ctypeIwEC2Em
libhdr10plus.so:_ZNSt5ctypeIwED0Ev
libhdr10plus.so:_ZNSt5ctypeIwED1Ev
libhdr10plus.so:_ZNSt5ctypeIwED2Ev
libhdr10plus.so:_ZNSt6locale13_S_initializeEv
libhdr10plus.so:_ZNSt6locale18_S_initialize_onceEv
libhdr10plus.so:_ZNSt6locale21_S_normalize_categoryEi
libhdr10plus.so:_ZNSt6locale5_Impl13_M_init_extraEPPNS_5facetE
libhdr10plus.so:_ZNSt6locale5_Impl13_M_init_extraEPvS1_PKcS3_
libhdr10plus.so:_ZNSt6locale5_Impl16_M_install_cacheEPKNS_5facetEm
libhdr10plus.so:_ZNSt6locale5_Impl16_M_install_facetEPKNS_2idEPKNS_5facetE
libhdr10plus.so:_ZNSt6locale5_Impl16_M_replace_facetEPKS0_PKNS_2idE
libhdr10plus.so:_ZNSt6locale5_Impl19_M_replace_categoryEPKS0_PKPKNS_2idE
libhdr10plus.so:_ZNSt6locale5_ImplC1ERKS0_m
libhdr10plus.so:_ZNSt6locale5_ImplC1Em
libhdr10plus.so:_ZNSt6locale5_ImplC2ERKS0_m
libhdr10plus.so:_ZNSt6locale5_ImplC2Em
libhdr10plus.so:_ZNSt6locale5_ImplD1Ev
libhdr10plus.so:_ZNSt6locale5_ImplD2Ev
libhdr10plus.so:_ZNSt6locale5facet13_S_get_c_nameEv
libhdr10plus.so:_ZNSt6locale5facet15_S_get_c_localeEv
libhdr10plus.so:_ZNSt6locale5facet17_S_clone_c_localeERP15__locale_struct
libhdr10plus.so:_ZNSt6locale5facet18_S_create_c_localeERP15__locale_structPKcS2_
libhdr10plus.so:_ZNSt6locale5facet18_S_initialize_onceEv
libhdr10plus.so:_ZNSt6locale5facet19_S_destroy_c_localeERP15__locale_struct
libhdr10plus.so:_ZNSt6locale5facet20_S_lc_ctype_c_localeEP15__locale_structPKc
libhdr10plus.so:_ZNSt6locale5facetD0Ev
libhdr10plus.so:_ZNSt6locale5facetD1Ev
libhdr10plus.so:_ZNSt6locale5facetD2Ev
libhdr10plus.so:_ZNSt6locale6globalERKS_
libhdr10plus.so:_ZNSt6locale7classicEv
libhdr10plus.so:_ZNSt6localeC1EPNS_5_ImplE
libhdr10plus.so:_ZNSt6localeC1ERKS_
libhdr10plus.so:_ZNSt6localeC1Ev
libhdr10plus.so:_ZNSt6localeC2EPNS_5_ImplE
libhdr10plus.so:_ZNSt6localeC2ERKS_
libhdr10plus.so:_ZNSt6localeC2Ev
libhdr10plus.so:_ZNSt6localeD1Ev
libhdr10plus.so:_ZNSt6localeD2Ev
libhdr10plus.so:_ZNSt6localeaSERKS_
libhdr10plus.so:_ZNSt7__cxx1110moneypunctIcLb0EE24_M_initialize_moneypunctEP15__locale_structPKc
libhdr10plus.so:_ZNSt7__cxx1110moneypunctIcLb0EED0Ev
libhdr10plus.so:_ZNSt7__cxx1110moneypunctIcLb0EED1Ev
libhdr10plus.so:_ZNSt7__cxx1110moneypunctIcLb0EED2Ev
libhdr10plus.so:_ZNSt7__cxx1110moneypunctIcLb1EE24_M_initialize_moneypunctEP15__locale_structPKc
libhdr10plus.so:_ZNSt7__cxx1110moneypunctIcLb1EED0Ev
libhdr10plus.so:_ZNSt7__cxx1110moneypunctIcLb1EED1Ev
libhdr10plus.so:_ZNSt7__cxx1110moneypunctIcLb1EED2Ev
libhdr10plus.so:_ZNSt7__cxx1110moneypunctIwLb0EE24_M_initialize_moneypunctEP15__locale_structPKc
libhdr10plus.so:_ZNSt7__cxx1110moneypunctIwLb0EED0Ev
libhdr10plus.so:_ZNSt7__cxx1110moneypunctIwLb0EED1Ev
libhdr10plus.so:_ZNSt7__cxx1110moneypunctIwLb0EED2Ev
libhdr10plus.so:_ZNSt7__cxx1110moneypunctIwLb1EE24_M_initialize_moneypunctEP15__locale_structPKc
libhdr10plus.so:_ZNSt7__cxx1110moneypunctIwLb1EED0Ev
libhdr10plus.so:_ZNSt7__cxx1110moneypunctIwLb1EED1Ev
libhdr10plus.so:_ZNSt7__cxx1110moneypunctIwLb1EED2Ev
libhdr10plus.so:_ZNSt7__cxx1112basic_stringIcSt11char_traitsIcESaIcEE12_M_constructIPKcEEvT_S8_St20forward_iterator_tag
libhdr10plus.so:_ZNSt7__cxx1112basic_stringIcSt11char_traitsIcESaIcEE12_M_constructIPcEEvT_S7_St20forward_iterator_tag
libhdr10plus.so:_ZNSt7__cxx118numpunctIcE22_M_initialize_numpunctEP15__locale_struct
libhdr10plus.so:_ZNSt7__cxx118numpunctIcED0Ev
libhdr10plus.so:_ZNSt7__cxx118numpunctIcED1Ev
libhdr10plus.so:_ZNSt7__cxx118numpunctIcED2Ev
libhdr10plus.so:_ZNSt7__cxx118numpunctIwE22_M_initialize_numpunctEP15__locale_struct
libhdr10plus.so:_ZNSt7__cxx118numpunctIwED0Ev
libhdr10plus.so:_ZNSt7__cxx118numpunctIwED1Ev
libhdr10plus.so:_ZNSt7__cxx118numpunctIwED2Ev
libhdr10plus.so:_ZNSt7codecvtIDiDu11__mbstate_tED0Ev
libhdr10plus.so:_ZNSt7codecvtIDiDu11__mbstate_tED1Ev
libhdr10plus.so:_ZNSt7codecvtIDiDu11__mbstate_tED2Ev
libhdr10plus.so:_ZNSt7codecvtIDic11__mbstate_tED0Ev
libhdr10plus.so:_ZNSt7codecvtIDic11__mbstate_tED1Ev
libhdr10plus.so:_ZNSt7codecvtIDic11__mbstate_tED2Ev
libhdr10plus.so:_ZNSt7codecvtIDsDu11__mbstate_tED0Ev
libhdr10plus.so:_ZNSt7codecvtIDsDu11__mbstate_tED1Ev
libhdr10plus.so:_ZNSt7codecvtIDsDu11__mbstate_tED2Ev
libhdr10plus.so:_ZNSt7codecvtIDsc11__mbstate_tED0Ev
libhdr10plus.so:_ZNSt7codecvtIDsc11__mbstate_tED1Ev
libhdr10plus.so:_ZNSt7codecvtIDsc11__mbstate_tED2Ev
libhdr10plus.so:_ZNSt7codecvtIcc11__mbstate_tEC1EP15__locale_structm
libhdr10plus.so:_ZNSt7codecvtIcc11__mbstate_tEC1Em
libhdr10plus.so:_ZNSt7codecvtIcc11__mbstate_tEC2EP15__locale_structm
libhdr10plus.so:_ZNSt7codecvtIcc11__mbstate_tEC2Em
libhdr10plus.so:_ZNSt7codecvtIcc11__mbstate_tED0Ev
libhdr10plus.so:_ZNSt7codecvtIcc11__mbstate_tED1Ev
libhdr10plus.so:_ZNSt7codecvtIcc11__mbstate_tED2Ev
libhdr10plus.so:_ZNSt7codecvtIwc11__mbstate_tEC1EP15__locale_structm
libhdr10plus.so:_ZNSt7codecvtIwc11__mbstate_tEC1Em
libhdr10plus.so:_ZNSt7codecvtIwc11__mbstate_tEC2EP15__locale_structm
libhdr10plus.so:_ZNSt7codecvtIwc11__mbstate_tEC2Em
libhdr10plus.so:_ZNSt7codecvtIwc11__mbstate_tED0Ev
libhdr10plus.so:_ZNSt7codecvtIwc11__mbstate_tED1Ev
libhdr10plus.so:_ZNSt7codecvtIwc11__mbstate_tED2Ev
libhdr10plus.so:_ZNSt8Catalogs6_M_addEPKcSt6locale
libhdr10plus.so:_ZNSt8Catalogs8_M_eraseEi
libhdr10plus.so:_ZNSt8CatalogsD1Ev
libhdr10plus.so:_ZNSt8CatalogsD2Ev
libhdr10plus.so:_ZNSt8bad_castD0Ev
libhdr10plus.so:_ZNSt8bad_castD1Ev
libhdr10plus.so:_ZNSt8bad_castD2Ev
libhdr10plus.so:_ZNSt8ios_base13_M_grow_wordsEib
libhdr10plus.so:_ZNSt8ios_base15sync_with_stdioEb
libhdr10plus.so:_ZNSt8ios_base17_M_call_callbacksENS_5eventE
libhdr10plus.so:_ZNSt8ios_base17register_callbackEPFvNS_5eventERS_iEi
libhdr10plus.so:_ZNSt8ios_base20_M_dispose_callbacksEv
libhdr10plus.so:_ZNSt8ios_base4InitC1Ev
libhdr10plus.so:_ZNSt8ios_base4InitC2Ev
libhdr10plus.so:_ZNSt8ios_base4InitD1Ev
libhdr10plus.so:_ZNSt8ios_base4InitD2Ev
libhdr10plus.so:_ZNSt8ios_base5imbueERKSt6locale
libhdr10plus.so:_ZNSt8ios_base6xallocEv
libhdr10plus.so:_ZNSt8ios_base7_M_initEv
libhdr10plus.so:_ZNSt8ios_base7_M_moveERS_
libhdr10plus.so:_ZNSt8ios_base7_M_swapERS_
libhdr10plus.so:_ZNSt8ios_base7failureB5cxx11C1EPKcRKSt10error_code
libhdr10plus.so:_ZNSt8ios_base7failureB5cxx11C1ERKNSt7__cxx1112basic_stringIcSt11char_traitsIcESaIcEEE
libhdr10plus.so:_ZNSt8ios_base7failureB5cxx11C1ERKNSt7__cxx1112basic_stringIcSt11char_traitsIcESaIcEEERKSt10error_code
libhdr10plus.so:_ZNSt8ios_base7failureB5cxx11C2EPKcRKSt10error_code
libhdr10plus.so:_ZNSt8ios_base7failureB5cxx11C2ERKNSt7__cxx1112basic_stringIcSt11char_traitsIcESaIcEEE
libhdr10plus.so:_ZNSt8ios_base7failureB5cxx11C2ERKNSt7__cxx1112basic_stringIcSt11char_traitsIcESaIcEEERKSt10error_code
libhdr10plus.so:_ZNSt8ios_base7failureB5cxx11D0Ev
libhdr10plus.so:_ZNSt8ios_base7failureB5cxx11D1Ev
libhdr10plus.so:_ZNSt8ios_base7failureB5cxx11D2Ev
libhdr10plus.so:_ZNSt8ios_base7failureC1ERKSs
libhdr10plus.so:_ZNSt8ios_base7failureC2ERKSs
libhdr10plus.so:_ZNSt8ios_base7failureD0Ev
libhdr10plus.so:_ZNSt8ios_base7failureD1Ev
libhdr10plus.so:_ZNSt8ios_base7failureD2Ev
libhdr10plus.so:_ZNSt8ios_baseC1Ev
libhdr10plus.so:_ZNSt8ios_baseC2Ev
libhdr10plus.so:_ZNSt8ios_baseD0Ev
libhdr10plus.so:_ZNSt8ios_baseD1Ev
libhdr10plus.so:_ZNSt8ios_baseD2Ev
libhdr10plus.so:_ZNSt8numpunctIcE22_M_initialize_numpunctEP15__locale_struct
libhdr10plus.so:_ZNSt8numpunctIcED0Ev
libhdr10plus.so:_ZNSt8numpunctIcED1Ev
libhdr10plus.so:_ZNSt8numpunctIcED2Ev
libhdr10plus.so:_ZNSt8numpunctIwE22_M_initialize_numpunctEP15__locale_struct
libhdr10plus.so:_ZNSt8numpunctIwED0Ev
libhdr10plus.so:_ZNSt8numpunctIwED1Ev
libhdr10plus.so:_ZNSt8numpunctIwED2Ev
libhdr10plus.so:_ZNSt9bad_allocD0Ev
libhdr10plus.so:_ZNSt9bad_allocD1Ev
libhdr10plus.so:_ZNSt9bad_allocD2Ev
libhdr10plus.so:_ZNSt9exceptionD0Ev
libhdr10plus.so:_ZNSt9exceptionD1Ev
libhdr10plus.so:_ZNSt9exceptionD2Ev
libhdr10plus.so:_ZNSt9type_infoD0Ev
libhdr10plus.so:_ZNSt9type_infoD1Ev
libhdr10plus.so:_ZNSt9type_infoD2Ev
libhdr10plus.so:_ZSt10unexpectedv
libhdr10plus.so:_ZSt12get_catalogsv
libhdr10plus.so:_ZSt13get_terminatev
libhdr10plus.so:_ZSt13set_terminatePFvvE
libhdr10plus.so:_ZSt14__convert_to_vIdEvPKcRT_RSt12_Ios_IostateRKP15__locale_struct
libhdr10plus.so:_ZSt14__convert_to_vIeEvPKcRT_RSt12_Ios_IostateRKP15__locale_struct
libhdr10plus.so:_ZSt14__convert_to_vIfEvPKcRT_RSt12_Ios_IostateRKP15__locale_struct
libhdr10plus.so:_ZSt14get_unexpectedv
libhdr10plus.so:_ZSt14set_unexpectedPFvvE
libhdr10plus.so:_ZSt15get_new_handlerv
libhdr10plus.so:_ZSt15set_new_handlerPFvvE
libhdr10plus.so:_ZSt16__throw_bad_castv
libhdr10plus.so:_ZSt17__istream_extractRSiPcl
libhdr10plus.so:_ZSt17__throw_bad_allocv
libhdr10plus.so:_ZSt17__verify_groupingPKcmRKNSt7__cxx1112basic_stringIcSt11char_traitsIcESaIcEEE
libhdr10plus.so:_ZSt17__verify_groupingPKcmRKSs
libhdr10plus.so:_ZSt17iostream_categoryv
libhdr10plus.so:_ZSt18_Rb_tree_decrementPKSt18_Rb_tree_node_base
libhdr10plus.so:_ZSt18_Rb_tree_decrementPSt18_Rb_tree_node_base
libhdr10plus.so:_ZSt18_Rb_tree_incrementPKSt18_Rb_tree_node_base
libhdr10plus.so:_ZSt18_Rb_tree_incrementPSt18_Rb_tree_node_base
libhdr10plus.so:_ZSt18__throw_bad_typeidv
libhdr10plus.so:_ZSt18uncaught_exceptionv
libhdr10plus.so:_ZSt19__throw_ios_failurePKc
libhdr10plus.so:_ZSt19__throw_ios_failurePKci
libhdr10plus.so:_ZSt19__throw_logic_errorPKc
libhdr10plus.so:_ZSt19__throw_range_errorPKc
libhdr10plus.so:_ZSt19uncaught_exceptionsv
libhdr10plus.so:_ZSt20_Rb_tree_black_countPKSt18_Rb_tree_node_baseS1_
libhdr10plus.so:_ZSt20_Rb_tree_rotate_leftPSt18_Rb_tree_node_baseRS0_
libhdr10plus.so:_ZSt20__throw_domain_errorPKc
libhdr10plus.so:_ZSt20__throw_length_errorPKc
libhdr10plus.so:_ZSt20__throw_out_of_rangePKc
libhdr10plus.so:_ZSt20__throw_system_errori
libhdr10plus.so:_ZSt21_Rb_tree_rotate_rightPSt18_Rb_tree_node_baseRS0_
libhdr10plus.so:_ZSt21__copy_streambufs_eofIcSt11char_traitsIcEElPSt15basic_streambufIT_T0_ES6_Rb
libhdr10plus.so:_ZSt21__copy_streambufs_eofIwSt11char_traitsIwEElPSt15basic_streambufIT_T0_ES6_Rb
libhdr10plus.so:_ZSt21__destroy_ios_failurePv
libhdr10plus.so:_ZSt21__throw_bad_exceptionv
libhdr10plus.so:_ZSt21__throw_runtime_errorPKc
libhdr10plus.so:_ZSt22__throw_overflow_errorPKc
libhdr10plus.so:_ZSt22__verify_grouping_implPKcmS0_m
libhdr10plus.so:_ZSt23__construct_ios_failurePvPKc
libhdr10plus.so:_ZSt23__throw_underflow_errorPKc
libhdr10plus.so:_ZSt24__is_ios_failure_handlerPKN10__cxxabiv117__class_type_infoE
libhdr10plus.so:_ZSt24__narrow_multibyte_charsPKcP15__locale_struct
libhdr10plus.so:_ZSt24__throw_invalid_argumentPKc
libhdr10plus.so:_ZSt24__throw_out_of_range_fmtPKcz
libhdr10plus.so:_ZSt28_Rb_tree_rebalance_for_erasePSt18_Rb_tree_node_baseRS_
libhdr10plus.so:_ZSt28__throw_bad_array_new_lengthv
libhdr10plus.so:_ZSt29_Rb_tree_insert_and_rebalancebPSt18_Rb_tree_node_baseS0_RS_
libhdr10plus.so:_ZSt9terminatev
libhdr10plus.so:_ZStplIcSt11char_traitsIcESaIcEENSt7__cxx1112basic_stringIT_T0_T1_EEPKS5_RKS8_
libhdr10plus.so:_ZdaPv
libhdr10plus.so:_ZdlPv
libhdr10plus.so:_ZdlPvm
libhdr10plus.so:_Znam
libhdr10plus.so:_ZnamRKSt9nothrow_t
libhdr10plus.so:_Znwm
libhdr10plus.so:__cxa_allocate_dependent_exception
libhdr10plus.so:__cxa_allocate_exception
libhdr10plus.so:__cxa_bad_cast
libhdr10plus.so:__cxa_bad_typeid
libhdr10plus.so:__cxa_begin_catch
libhdr10plus.so:__cxa_call_terminate
libhdr10plus.so:__cxa_call_unexpected
libhdr10plus.so:__cxa_current_exception_type
libhdr10plus.so:__cxa_demangle
libhdr10plus.so:__cxa_end_catch
libhdr10plus.so:__cxa_free_dependent_exception
libhdr10plus.so:__cxa_free_exception
libhdr10plus.so:__cxa_get_exception_ptr
libhdr10plus.so:__cxa_get_globals
libhdr10plus.so:__cxa_get_globals_fast
libhdr10plus.so:__cxa_guard_abort
libhdr10plus.so:__cxa_guard_acquire
libhdr10plus.so:__cxa_guard_release
libhdr10plus.so:__cxa_init_primary_exception
libhdr10plus.so:__cxa_rethrow
libhdr10plus.so:__cxa_throw
libhdr10plus.so:__cxa_throw_bad_array_new_length
libhdr10plus.so:__dynamic_cast
libhdr10plus.so:__gcclibcxx_demangle_callback
libhdr10plus.so:__gxx_personality_v0
libx265.so.200:_Z10copy_countILi16EEjPsPKsl
libx265.so.200:_Z10copy_countILi32EEjPsPKsl
libx265.so.200:_Z10copy_countILi4EEjPsPKsl
libx265.so.200:_Z10copy_countILi8EEjPsPKsl
libx265.so.200:_Z15count_nonzero_cILi16EEiPKs
libx265.so.200:_Z15count_nonzero_cILi32EEiPKs
libx265.so.200:_Z15count_nonzero_cILi4EEiPKs
libx265.so.200:_Z15count_nonzero_cILi8EEiPKs
libx265.so.200:_Z17hdr10plus_api_getv
libx265.so.200:_Z20_txnal_cow_string_D1Pv
libx265.so.200:_Z21hdr10plus_clear_movieRPPhi
libx265.so.200:_Z23_txnal_cow_string_c_strPKv
libx265.so.200:_Z23_txnal_sso_string_c_strPKv
libx265.so.200:_Z26_txnal_logic_error_get_msgPv
libx265.so.200:_Z27_txnal_cow_string_D1_commitPv
libx265.so.200:_Z27hdr10plus_json_to_frame_cimPKcjRPh
libx265.so.200:_Z27hdr10plus_json_to_frame_eifPKcjRPh
libx265.so.200:_Z27hdr10plus_json_to_movie_cimPKcRPPh
libx265.so.200:_Z27hdr10plus_json_to_movie_eifPKcRPPh
libx265.so.200:_Z28_txnal_runtime_error_get_msgPv
libx265.so.200:_Z35_txnal_cow_string_C1_for_exceptionsPvPKcS_
libx265.so.200:_ZGTtNKSt11logic_error4whatEv
libx265.so.200:_ZGTtNKSt13bad_exception4whatEv
libx265.so.200:_ZGTtNKSt13bad_exceptionD1Ev
libx265.so.200:_ZGTtNKSt13runtime_error4whatEv
libx265.so.200:_ZGTtNKSt9exception4whatEv
libx265.so.200:_ZGTtNKSt9exceptionD1Ev
libx265.so.200:_ZGTtNSt11logic_errorC1EPKc
libx265.so.200:_ZGTtNSt11logic_errorC1ERKNSt7__cxx1112basic_stringIcSt11char_traitsIcESaIcEEE
libx265.so.200:_ZGTtNSt11logic_errorC2EPKc
libx265.so.200:_ZGTtNSt11logic_errorC2ERKNSt7__cxx1112basic_stringIcSt11char_traitsIcESaIcEEE
libx265.so.200:_ZGTtNSt11logic_errorD0Ev
libx265.so.200:_ZGTtNSt11logic_errorD1Ev
libx265.so.200:_ZGTtNSt11logic_errorD2Ev
libx265.so.200:_ZGTtNSt11range_errorC1EPKc
libx265.so.200:_ZGTtNSt11range_errorC1ERKNSt7__cxx1112basic_stringIcSt11char_traitsIcESaIcEEE
libx265.so.200:_ZGTtNSt11range_errorC2EPKc
libx265.so.200:_ZGTtNSt11range_errorC2ERKNSt7__cxx1112basic_stringIcSt11char_traitsIcESaIcEEE
libx265.so.200:_ZGTtNSt11range_errorD0Ev
libx265.so.200:_ZGTtNSt11range_errorD1Ev
libx265.so.200:_ZGTtNSt11range_errorD2Ev
libx265.so.200:_ZGTtNSt12domain_errorC1EPKc
libx265.so.200:_ZGTtNSt12domain_errorC1ERKNSt7__cxx1112basic_stringIcSt11char_traitsIcESaIcEEE
libx265.so.200:_ZGTtNSt12domain_errorC2EPKc
libx265.so.200:_ZGTtNSt12domain_errorC2ERKNSt7__cxx1112basic_stringIcSt11char_traitsIcESaIcEEE
libx265.so.200:_ZGTtNSt12domain_errorD0Ev
libx265.so.200:_ZGTtNSt12domain_errorD1Ev
libx265.so.200:_ZGTtNSt12domain_errorD2Ev
libx265.so.200:_ZGTtNSt12length_errorC1EPKc
libx265.so.200:_ZGTtNSt12length_errorC1ERKNSt7__cxx1112basic_stringIcSt11char_traitsIcESaIcEEE
libx265.so.200:_ZGTtNSt12length_errorC2EPKc
libx265.so.200:_ZGTtNSt12length_errorC2ERKNSt7__cxx1112basic_stringIcSt11char_traitsIcESaIcEEE
libx265.so.200:_ZGTtNSt12length_errorD0Ev
libx265.so.200:_ZGTtNSt12length_errorD1Ev
libx265.so.200:_ZGTtNSt12length_errorD2Ev
libx265.so.200:_ZGTtNSt12out_of_rangeC1EPKc
libx265.so.200:_ZGTtNSt12out_of_rangeC1ERKNSt7__cxx1112basic_stringIcSt11char_traitsIcESaIcEEE
libx265.so.200:_ZGTtNSt12out_of_rangeC2EPKc
libx265.so.200:_ZGTtNSt12out_of_rangeC2ERKNSt7__cxx1112basic_stringIcSt11char_traitsIcESaIcEEE
libx265.so.200:_ZGTtNSt12out_of_rangeD0Ev
libx265.so.200:_ZGTtNSt12out_of_rangeD1Ev
libx265.so.200:_ZGTtNSt12out_of_rangeD2Ev
libx265.so.200:_ZGTtNSt13runtime_errorC1EPKc
libx265.so.200:_ZGTtNSt13runtime_errorC1ERKNSt7__cxx1112basic_stringIcSt11char_traitsIcESaIcEEE
libx265.so.200:_ZGTtNSt13runtime_errorC2EPKc
libx265.so.200:_ZGTtNSt13runtime_errorC2ERKNSt7__cxx1112basic_stringIcSt11char_traitsIcESaIcEEE
libx265.so.200:_ZGTtNSt13runtime_errorD0Ev
libx265.so.200:_ZGTtNSt13runtime_errorD1Ev
libx265.so.200:_ZGTtNSt13runtime_errorD2Ev
libx265.so.200:_ZGTtNSt14overflow_errorC1EPKc
libx265.so.200:_ZGTtNSt14overflow_errorC1ERKNSt7__cxx1112basic_stringIcSt11char_traitsIcESaIcEEE
libx265.so.200:_ZGTtNSt14overflow_errorC2EPKc
libx265.so.200:_ZGTtNSt14overflow_errorC2ERKNSt7__cxx1112basic_stringIcSt11char_traitsIcESaIcEEE
libx265.so.200:_ZGTtNSt14overflow_errorD0Ev
libx265.so.200:_ZGTtNSt14overflow_errorD1Ev
libx265.so.200:_ZGTtNSt14overflow_errorD2Ev
libx265.so.200:_ZGTtNSt15underflow_errorC1EPKc
libx265.so.200:_ZGTtNSt15underflow_errorC1ERKNSt7__cxx1112basic_stringIcSt11char_traitsIcESaIcEEE
libx265.so.200:_ZGTtNSt15underflow_errorC2EPKc
libx265.so.200:_ZGTtNSt15underflow_errorC2ERKNSt7__cxx1112basic_stringIcSt11char_traitsIcESaIcEEE
libx265.so.200:_ZGTtNSt15underflow_errorD0Ev
libx265.so.200:_ZGTtNSt15underflow_errorD1Ev
libx265.so.200:_ZGTtNSt15underflow_errorD2Ev
libx265.so.200:_ZGTtNSt16invalid_argumentC1EPKc
libx265.so.200:_ZGTtNSt16invalid_argumentC1ERKNSt7__cxx1112basic_stringIcSt11char_traitsIcESaIcEEE
libx265.so.200:_ZGTtNSt16invalid_argumentC2EPKc
libx265.so.200:_ZGTtNSt16invalid_argumentC2ERKNSt7__cxx1112basic_stringIcSt11char_traitsIcESaIcEEE
libx265.so.200:_ZGTtNSt16invalid_argumentD0Ev
libx265.so.200:_ZGTtNSt16invalid_argumentD1Ev
libx265.so.200:_ZGTtNSt16invalid_argumentD2Ev
libx265.so.200:_ZN10JsonHelper13readJsonArrayERKNSt7__cxx1112basic_stringIcSt11char_traitsIcESaIcEEE
libx265.so.200:_ZN10JsonHelper21validatePathExtensionERNSt7__cxx1112basic_stringIcSt11char_traitsIcESaIcEEE
libx265.so.200:_ZN10JsonHelper3addENSt7__cxx1112basic_stringIcSt11char_traitsIcESaIcEEES5_RSt3mapIS5_N6json114JsonESt4lessIS5_ESaISt4pairIKS5_S8_EEE
libx265.so.200:_ZN10JsonHelper4dumpESt3mapINSt7__cxx1112basic_stringIcSt11char_traitsIcESaIcEEEN6json114JsonESt4lessIS6_ESaISt4pairIKS6_S8_EEEi
libx265.so.200:_ZN10JsonHelper8readJsonENSt7__cxx1112basic_stringIcSt11char_traitsIcESaIcEEE
libx265.so.200:_ZN10JsonHelper9printTabsERNSt7__cxx1112basic_stringIcSt11char_traitsIcESaIcEEEi
libx265.so.200:_ZN10JsonHelper9writeJsonESt3mapINSt7__cxx1112basic_stringIcSt11char_traitsIcESaIcEEEN6json114JsonESt4lessIS6_ESaISt4pairIKS6_S8_EEES6_
libx265.so.200:_ZN10JsonHelper9writeJsonESt6vectorIN6json114JsonESaIS2_EENSt7__cxx1112basic_stringIcSt11char_traitsIcESaIcEEE
libx265.so.200:_ZN10__cxxabiv111__terminateEPFvvE
libx265.so.200:_ZN10__cxxabiv112__unexpectedEPFvvE
libx265.so.200:_ZN10__cxxabiv115__forced_unwindD0Ev
libx265.so.200:_ZN10__cxxabiv115__forced_unwindD1Ev
libx265.so.200:_ZN10__cxxabiv115__forced_unwindD2Ev
libx265.so.200:_ZN10__cxxabiv117__class_type_infoD0Ev
libx265.so.200:_ZN10__cxxabiv117__class_type_infoD1Ev
libx265.so.200:_ZN10__cxxabiv117__class_type_infoD2Ev
libx265.so.200:_ZN10__cxxabiv119__foreign_exceptionD0Ev
libx265.so.200:_ZN10__cxxabiv119__foreign_exceptionD1Ev
libx265.so.200:_ZN10__cxxabiv119__foreign_exceptionD2Ev
libx265.so.200:_ZN10__cxxabiv120__si_class_type_infoD0Ev
libx265.so.200:_ZN10__cxxabiv120__si_class_type_infoD1Ev
libx265.so.200:_ZN10__cxxabiv120__si_class_type_infoD2Ev
libx265.so.200:_ZN10__cxxabiv121__vmi_class_type_infoD0Ev
libx265.so.200:_ZN10__cxxabiv121__vmi_class_type_infoD1Ev
libx265.so.200:_ZN10__cxxabiv121__vmi_class_type_infoD2Ev
libx265.so.200:_ZN10x265_12bit10ThreadPool11getCpuCountEv
libx265.so.200:_ZN10x265_12bit10ThreadPool11stopWorkersEv
libx265.so.200:_ZN10x265_12bit10ThreadPool12tryBondPeersEimRNS_15BondedTaskGroupE
libx265.so.200:_ZN10x265_12bit10ThreadPool16allocThreadPoolsEP10x265_paramRib
libx265.so.200:_ZN10x265_12bit10ThreadPool16getNumaNodeCountEv
libx265.so.200:_ZN10x265_12bit10ThreadPool20getFrameThreadsCountEP10x265_parami
libx265.so.200:_ZN10x265_12bit10ThreadPool21setThreadNodeAffinityEPv
libx265.so.200:_ZN10x265_12bit10ThreadPool24setCurrentThreadAffinityEv
libx265.so.200:_ZN10x265_12bit10ThreadPool24tryAcquireSleepingThreadEmm
libx265.so.200:_ZN10x265_12bit10ThreadPool5startEv
libx265.so.200:_ZN10x265_12bit10ThreadPool6createEiim
libx265.so.200:_ZN10x265_12bit10ThreadPoolC1Ev
libx265.so.200:_ZN10x265_12bit10ThreadPoolC2Ev
libx265.so.200:_ZN10x265_12bit10ThreadPoolD1Ev
libx265.so.200:_ZN10x265_12bit10ThreadPoolD2Ev
libx265.so.200:_ZN10x265_12bit10cpu_detectEb
libx265.so.200:_ZN10x265_12bit10edgeFilterEPNS_5FrameEP10x265_param
libx265.so.200:_ZN10x265_12bit10x265_mdateEv
libx265.so.200:_ZN10x265_12bit11FrameFilter10processRowEi
libx265.so.200:_ZN10x265_12bit11FrameFilter14ParallelFilter12processTasksEi
libx265.so.200:_ZN10x265_12bit11FrameFilter14ParallelFilter13processSaoCTUEPNS_8SAOParamEi
libx265.so.200:_ZN10x265_12bit11FrameFilter14ParallelFilter15copySaoAboveRefEPKNS_6CUDataEPNS_6PicYuvEji
libx265.so.200:_ZN10x265_12bit11FrameFilter14processPostRowEi
libx265.so.200:_ZN10x265_12bit11FrameFilter17computeMEIntegralEi
libx265.so.200:_ZN10x265_12bit11FrameFilter4initEPNS_7EncoderEPNS_12FrameEncoderEij
libx265.so.200:_ZN10x265_12bit11FrameFilter5startEPNS_5FrameERNS_7EntropyE
libx265.so.200:_ZN10x265_12bit11FrameFilter7destroyEv
libx265.so.200:_ZN10x265_12bit11JobProvider10tryWakeOneEv
libx265.so.200:_ZN10x265_12bit11RateControl10clipQscaleEPNS_5FrameEPNS_16RateControlEntryEd
libx265.so.200:_ZN10x265_12bit11RateControl10splitbUsedEPcPNS_16RateControlEntryE
libx265.so.200:_ZN10x265_12bit11RateControl11hrdFullnessEPNS_18SEIBufferingPeriodE
libx265.so.200:_ZN10x265_12bit11RateControl11predictSizeEPNS_9PredictorEdd
libx265.so.200:_ZN10x265_12bit11RateControl12fixUnderflowEiiddd
libx265.so.200:_ZN10x265_12bit11RateControl13findUnderflowEPdPiS2_ii
libx265.so.200:_ZN10x265_12bit11RateControl13reconfigureRCEv
libx265.so.200:_ZN10x265_12bit11RateControl13splitdeltaPOCEPcPNS_16RateControlEntryE
libx265.so.200:_ZN10x265_12bit11RateControl13updateVbvPlanEPNS_7EncoderE
libx265.so.200:_ZN10x265_12bit11RateControl14accumPQpUpdateEv
libx265.so.200:_ZN10x265_12bit11RateControl14forwardMaskingEPNS_5FrameEd
libx265.so.200:_ZN10x265_12bit11RateControl14rateControlEndEPNS_5FrameElPNS_16RateControlEntryEPi
libx265.so.200:_ZN10x265_12bit11RateControl15analyseABR2PassEm
libx265.so.200:_ZN10x265_12bit11RateControl15backwardMaskingEPNS_5FrameEd
libx265.so.200:_ZN10x265_12bit11RateControl15updatePredictorEPNS_9PredictorEddd
libx265.so.200:_ZN10x265_12bit11RateControl16checkAndResetABREPNS_16RateControlEntryEb
libx265.so.200:_ZN10x265_12bit11RateControl16getPredictorTypeEii
libx265.so.200:_ZN10x265_12bit11RateControl16rateControlStartEPNS_5FrameEPNS_16RateControlEntryEPNS_7EncoderE
libx265.so.200:_ZN10x265_12bit11RateControl17countExpectedBitsEii
libx265.so.200:_ZN10x265_12bit11RateControl17rowVbvRateControlEPNS_5FrameEjPNS_16RateControlEntryERdPjj
libx265.so.200:_ZN10x265_12bit11RateControl17tuneQScaleForZoneEPNS_16RateControlEntryEd
libx265.so.200:_ZN10x265_12bit11RateControl18cuTreeReadFor2PassEPNS_5FrameE
libx265.so.200:_ZN10x265_12bit11RateControl18predictRowsSizeSumEPNS_5FrameEPNS_16RateControlEntryEdRi
libx265.so.200:_ZN10x265_12bit11RateControl18rateEstimateQscaleEPNS_5FrameEPNS_16RateControlEntryE
libx265.so.200:_ZN10x265_12bit11RateControl18setFinalFrameCountEi
libx265.so.200:_ZN10x265_12bit11RateControl18tuneQScaleForGrainEd
libx265.so.200:_ZN10x265_12bit11RateControl19initFramePredictorsEv
libx265.so.200:_ZN10x265_12bit11RateControl20getDiffLimitedQScaleEPNS_16RateControlEntryEd
libx265.so.200:_ZN10x265_12bit11RateControl20rateControlSliceTypeEi
libx265.so.200:_ZN10x265_12bit11RateControl22rateControlUpdateStatsEPNS_16RateControlEntryE
libx265.so.200:_ZN10x265_12bit11RateControl25tuneAbrQScaleFromFeedbackEd
libx265.so.200:_ZN10x265_12bit11RateControl26writeRateControlFrameStatsEPNS_5FrameEPNS_16RateControlEntryE
libx265.so.200:_ZN10x265_12bit11RateControl4initERKNS_3SPSE
libx265.so.200:_ZN10x265_12bit11RateControl7destroyEv
libx265.so.200:_ZN10x265_12bit11RateControl7getZoneEv
libx265.so.200:_ZN10x265_12bit11RateControl7initHRDERNS_3SPSE
libx265.so.200:_ZN10x265_12bit11RateControl8vbv2PassEmii
libx265.so.200:_ZN10x265_12bit11RateControl9getQScaleEPNS_16RateControlEntryEd
libx265.so.200:_ZN10x265_12bit11RateControl9initPass2Ev
libx265.so.200:_ZN10x265_12bit11RateControl9terminateEv
libx265.so.200:_ZN10x265_12bit11RateControl9updateVbvElPNS_16RateControlEntryE
libx265.so.200:_ZN10x265_12bit11RateControlC1ER10x265_paramPNS_7EncoderE
libx265.so.200:_ZN10x265_12bit11RateControlC2ER10x265_paramPNS_7EncoderE
libx265.so.200:_ZN10x265_12bit11ScalingList16parseScalingListEPKc
libx265.so.200:_ZN10x265_12bit11ScalingList18setupQuantMatricesEi
libx265.so.200:_ZN10x265_12bit11ScalingList19processDefaultMarixEii
libx265.so.200:_ZN10x265_12bit11ScalingList21processScalingListDecEPiS1_iiiiii
libx265.so.200:_ZN10x265_12bit11ScalingList21processScalingListEncEPiS1_iiiiii
libx265.so.200:_ZN10x265_12bit11ScalingList21setDefaultScalingListEv
libx265.so.200:_ZN10x265_12bit11ScalingList4initEv
libx265.so.200:_ZN10x265_12bit11ScalingListC1Ev
libx265.so.200:_ZN10x265_12bit11ScalingListC2Ev
libx265.so.200:_ZN10x265_12bit11ScalingListD1Ev
libx265.so.200:_ZN10x265_12bit11ScalingListD2Ev
libx265.so.200:_ZN10x265_12bit11computeEdgeEPtS0_S0_liibt
libx265.so.200:_ZN10x265_12bit11general_logEPK10x265_paramPKciS4_z
libx265.so.200:_ZN10x265_12bit11getBsLengthEi
libx265.so.200:_ZN10x265_12bit11x265_mallocEm
libx265.so.200:_ZN10x265_12bit12FrameEncoder10processRowEii
libx265.so.200:_ZN10x265_12bit12FrameEncoder10threadMainEv
libx265.so.200:_ZN10x265_12bit12FrameEncoder11encodeSliceEj
libx265.so.200:_ZN10x265_12bit12FrameEncoder13compressFrameEv
libx265.so.200:_ZN10x265_12bit12FrameEncoder14WeightAnalysis12processTasksEi
libx265.so.200:_ZN10x265_12bit12FrameEncoder15initializeGeomsEv
libx265.so.200:_ZN10x265_12bit12FrameEncoder16writeToneMapInfoEP16x265_sei_payload
libx265.so.200:_ZN10x265_12bit12FrameEncoder17collectDynDataRowERNS_6CUDataEPNS_10FrameStatsE
libx265.so.200:_ZN10x265_12bit12FrameEncoder17getEncodedPictureERNS_7NALListE
libx265.so.200:_ZN10x265_12bit12FrameEncoder17processRowEncoderEiRNS_15ThreadLocalDataE
libx265.so.200:_ZN10x265_12bit12FrameEncoder18startCompressFrameEPNS_5FrameE
libx265.so.200:_ZN10x265_12bit12FrameEncoder19collectDynDataFrameEv
libx265.so.200:_ZN10x265_12bit12FrameEncoder20collectCTUStatisticsERKNS_6CUDataEPNS_10FrameStatsE
libx265.so.200:_ZN10x265_12bit12FrameEncoder20noiseReductionUpdateEv
libx265.so.200:_ZN10x265_12bit12FrameEncoder22computeAvgTrainingDataEv
libx265.so.200:_ZN10x265_12bit12FrameEncoder24writeTrailingSEIMessagesEv
libx265.so.200:_ZN10x265_12bit12FrameEncoder25initDecodedPictureHashSEIEiii
libx265.so.200:_ZN10x265_12bit12FrameEncoder4initEPNS_7EncoderEii
libx265.so.200:_ZN10x265_12bit12FrameEncoder7destroyEv
libx265.so.200:_ZN10x265_12bit12FrameEncoderC1Ev
libx265.so.200:_ZN10x265_12bit12FrameEncoderC2Ev
libx265.so.200:_ZN10x265_12bit12LookaheadTLD10acEnergyCuEPNS_5FrameEjjij
libx265.so.200:_ZN10x265_12bit12LookaheadTLD11xPreanalyzeEPNS_5FrameE
libx265.so.200:_ZN10x265_12bit12LookaheadTLD13edgeDensityCuEPNS_5FrameERjjjj
libx265.so.200:_ZN10x265_12bit12LookaheadTLD13xPreanalyzeQpEPNS_5FrameE
libx265.so.200:_ZN10x265_12bit12LookaheadTLD14weightCostLumaERNS_6LowresES2_RNS_11WeightParamE
libx265.so.200:_ZN10x265_12bit12LookaheadTLD14weightsAnalyseERNS_6LowresES2_
libx265.so.200:_ZN10x265_12bit12LookaheadTLD16allocWeightedRefERNS_6LowresE
libx265.so.200:_ZN10x265_12bit12LookaheadTLD19lowresIntraEstimateERNS_6LowresEj
libx265.so.200:_ZN10x265_12bit12LookaheadTLD22calcAdaptiveQuantFrameEPNS_5FrameEP10x265_param
libx265.so.200:_ZN10x265_12bit12LookaheadTLD9lumaSumCuEPNS_5FrameEjjj
libx265.so.200:_ZN10x265_12bit12MD5TransformEPjS0_
libx265.so.200:_ZN10x265_12bit12WorkerThread10threadMainEv
libx265.so.200:_ZN10x265_12bit12enforceLevelER10x265_paramRNS_3VPSE
libx265.so.200:_ZN10x265_12bit12parseCpuNameEPKcRbb
libx265.so.200:_ZN10x265_12bit12x265_cleanupEv
libx265.so.200:_ZN10x265_12bit12x265_ssim2dBEd
libx265.so.200:_ZN10x265_12bit13weightAnalyseERNS_5SliceERNS_5FrameER10x265_param
libx265.so.200:_ZN10x265_12bit13x265_exp2fix8Ed
libx265.so.200:_ZN10x265_12bit14MotionEstimate10initScalesEv
libx265.so.200:_ZN10x265_12bit14MotionEstimate11setSourcePUEPtlliiiiii
libx265.so.200:_ZN10x265_12bit14MotionEstimate11setSourcePUERKNS_3YuvEiiiiiiib
libx265.so.200:_ZN10x265_12bit14MotionEstimate13subpelCompareEPNS_15ReferencePlanesERKNS_2MVEPFiPKtlS7_lE
libx265.so.200:_ZN10x265_12bit14MotionEstimate14motionEstimateEPNS_15ReferencePlanesERKNS_2MVES5_S5_iPS4_iRS3_jPt
libx265.so.200:_ZN10x265_12bit14MotionEstimate18hpelIterationCountEi
libx265.so.200:_ZN10x265_12bit14MotionEstimate4initEi
libx265.so.200:_ZN10x265_12bit14MotionEstimate8refineMVEPNS_15ReferencePlanesERKNS_2MVES5_S5_RS3_
libx265.so.200:_ZN10x265_12bit14MotionEstimateC1Ev
libx265.so.200:_ZN10x265_12bit14MotionEstimateC2Ev
libx265.so.200:_ZN10x265_12bit14MotionEstimateD1Ev
libx265.so.200:_ZN10x265_12bit14MotionEstimateD2Ev
libx265.so.200:_ZN10x265_12bit14PredictionUnitC1ERKNS_6CUDataERKNS_6CUGeomEi
libx265.so.200:_ZN10x265_12bit14PredictionUnitC2ERKNS_6CUDataERKNS_6CUGeomEi
libx265.so.200:_ZN10x265_12bit14checksumFinishEjPh
libx265.so.200:_ZN10x265_12bit14determineLevelERK10x265_paramRNS_3VPSE
libx265.so.200:_ZN10x265_12bit14saoCuStatsBO_cEPKsPKtliiPiS4_
libx265.so.200:_ZN10x265_12bit14saoCuStatsE0_cEPKsPKtliiPiS4_
libx265.so.200:_ZN10x265_12bit14saoCuStatsE1_cEPKsPKtlPaiiPiS5_
libx265.so.200:_ZN10x265_12bit14saoCuStatsE2_cEPKsPKtlPaS4_iiPiS5_
libx265.so.200:_ZN10x265_12bit14saoCuStatsE3_cEPKsPKtlPaiiPiS5_
libx265.so.200:_ZN10x265_12bit14updateChecksumEPKtRjjjlij
libx265.so.200:_ZN10x265_12bit14updateMD5PlaneERNS_10MD5ContextEPKtjjl
libx265.so.200:_ZN10x265_12bit14x265_api_queryEiiPi
libx265.so.200:_ZN10x265_12bit14x265_qScale2qpEd
libx265.so.200:_ZN10x265_12bit14x265_qp2qScaleEd
libx265.so.200:_ZN10x265_12bit14x265_zone_freeEP10x265_param
libx265.so.200:_ZN10x265_12bit15MotionReference11applyWeightEjjjj
libx265.so.200:_ZN10x265_12bit15MotionReference4initEPNS_6PicYuvEPNS_11WeightParamERK10x265_param
libx265.so.200:_ZN10x265_12bit15MotionReferenceC1Ev
libx265.so.200:_ZN10x265_12bit15MotionReferenceC2Ev
libx265.so.200:_ZN10x265_12bit15MotionReferenceD1Ev
libx265.so.200:_ZN10x265_12bit15MotionReferenceD2Ev
libx265.so.200:_ZN10x265_12bit15extendPicBorderEPtliiii
libx265.so.200:_ZN10x265_12bit15parseLambdaFileEP10x265_param
libx265.so.200:_ZN10x265_12bit15x265_param_freeEP10x265_param
libx265.so.200:_ZN10x265_12bit15x265_slurp_fileEPKc
libx265.so.200:_ZN10x265_12bit15x265_zone_allocEii
libx265.so.200:_ZN10x265_12bit16setupCPrimitivesERNS_17EncoderPrimitivesE
libx265.so.200:_ZN10x265_12bit16x265_api_get_200Ei
libx265.so.200:_ZN10x265_12bit16x265_copy_paramsEP10x265_paramS1_
libx265.so.200:_ZN10x265_12bit16x265_csvlog_openEPK10x265_param
libx265.so.200:_ZN10x265_12bit16x265_encoder_logEP12x265_encoderiPPc
libx265.so.200:_ZN10x265_12bit16x265_param_allocEv
libx265.so.200:_ZN10x265_12bit16x265_param_parseEP10x265_paramPKcS3_
libx265.so.200:_ZN10x265_12bit16x265_report_simdEP10x265_param
libx265.so.200:_ZN10x265_12bit17CostEstimateGroup10singleCostEiiib
libx265.so.200:_ZN10x265_12bit17CostEstimateGroup11finishBatchEv
libx265.so.200:_ZN10x265_12bit17CostEstimateGroup12processTasksEi
libx265.so.200:_ZN10x265_12bit17CostEstimateGroup14estimateCUCostERNS_12LookaheadTLDEiiiiiPbbib
libx265.so.200:_ZN10x265_12bit17CostEstimateGroup17estimateFrameCostERNS_12LookaheadTLDEiiib
libx265.so.200:_ZN10x265_12bit17CostEstimateGroup3addEiii
libx265.so.200:_ZN10x265_12bit17PreLookaheadGroup12processTasksEi
libx265.so.200:_ZN10x265_12bit17x265_check_paramsEP10x265_param
libx265.so.200:_ZN10x265_12bit17x265_csvlog_frameEPK10x265_paramPK12x265_picture
libx265.so.200:_ZN10x265_12bit17x265_dither_imageEP12x265_pictureiiPsi
libx265.so.200:_ZN10x265_12bit17x265_param2stringEP10x265_paramii
libx265.so.200:_ZN10x265_12bit17x265_picture_freeEP12x265_picture
libx265.so.200:_ZN10x265_12bit17x265_picture_initEP10x265_paramP12x265_picture
libx265.so.200:_ZN10x265_12bit17x265_print_paramsEP10x265_param
libx265.so.200:_ZN10x265_12bit18x265_csvlog_encodeEPK10x265_paramPK10x265_statsiiiPPc
libx265.so.200:_ZN10x265_12bit18x265_encoder_closeEP12x265_encoder
libx265.so.200:_ZN10x265_12bit18x265_param_defaultEP10x265_param
libx265.so.200:_ZN10x265_12bit18x265_picture_allocEv
libx265.so.200:_ZN10x265_12bit19SyntaxElementWriter9writeUvlcEj
libx265.so.200:_ZN10x265_12bit19getParamAspectRatioEP10x265_paramRiS2_
libx265.so.200:_ZN10x265_12bit19setParamAspectRatioEP10x265_paramii
libx265.so.200:_ZN10x265_12bit19x265_encoder_encodeEP12x265_encoderPP8x265_nalPjP12x265_pictureS7_
libx265.so.200:_ZN10x265_12bit20PicQPAdaptationLayer6createEjjjjjj
libx265.so.200:_ZN10x265_12bit20setupAliasPrimitivesERNS_17EncoderPrimitivesE
libx265.so.200:_ZN10x265_12bit20setupDCTPrimitives_cERNS_17EncoderPrimitivesE
libx265.so.200:_ZN10x265_12bit20setupSaoPrimitives_cERNS_17EncoderPrimitivesE
libx265.so.200:_ZN10x265_12bit20x265_encoder_headersEP12x265_encoderPP8x265_nalPj
libx265.so.200:_ZN10x265_12bit21interp_8tap_hv_pp_cpuILi0EEEvPKtlPtlii
libx265.so.200:_ZN10x265_12bit21interp_8tap_hv_pp_cpuILi10EEEvPKtlPtlii
libx265.so.200:_ZN10x265_12bit21interp_8tap_hv_pp_cpuILi11EEEvPKtlPtlii
libx265.so.200:_ZN10x265_12bit21interp_8tap_hv_pp_cpuILi12EEEvPKtlPtlii
libx265.so.200:_ZN10x265_12bit21interp_8tap_hv_pp_cpuILi13EEEvPKtlPtlii
libx265.so.200:_ZN10x265_12bit21interp_8tap_hv_pp_cpuILi14EEEvPKtlPtlii
libx265.so.200:_ZN10x265_12bit21interp_8tap_hv_pp_cpuILi15EEEvPKtlPtlii
libx265.so.200:_ZN10x265_12bit21interp_8tap_hv_pp_cpuILi16EEEvPKtlPtlii
libx265.so.200:_ZN10x265_12bit21interp_8tap_hv_pp_cpuILi17EEEvPKtlPtlii
libx265.so.200:_ZN10x265_12bit21interp_8tap_hv_pp_cpuILi18EEEvPKtlPtlii
libx265.so.200:_ZN10x265_12bit21interp_8tap_hv_pp_cpuILi19EEEvPKtlPtlii
libx265.so.200:_ZN10x265_12bit21interp_8tap_hv_pp_cpuILi1EEEvPKtlPtlii
libx265.so.200:_ZN10x265_12bit21interp_8tap_hv_pp_cpuILi20EEEvPKtlPtlii
libx265.so.200:_ZN10x265_12bit21interp_8tap_hv_pp_cpuILi21EEEvPKtlPtlii
libx265.so.200:_ZN10x265_12bit21interp_8tap_hv_pp_cpuILi22EEEvPKtlPtlii
libx265.so.200:_ZN10x265_12bit21interp_8tap_hv_pp_cpuILi23EEEvPKtlPtlii
libx265.so.200:_ZN10x265_12bit21interp_8tap_hv_pp_cpuILi24EEEvPKtlPtlii
libx265.so.200:_ZN10x265_12bit21interp_8tap_hv_pp_cpuILi2EEEvPKtlPtlii
libx265.so.200:_ZN10x265_12bit21interp_8tap_hv_pp_cpuILi3EEEvPKtlPtlii
libx265.so.200:_ZN10x265_12bit21interp_8tap_hv_pp_cpuILi4EEEvPKtlPtlii
libx265.so.200:_ZN10x265_12bit21interp_8tap_hv_pp_cpuILi5EEEvPKtlPtlii
libx265.so.200:_ZN10x265_12bit21interp_8tap_hv_pp_cpuILi6EEEvPKtlPtlii
libx265.so.200:_ZN10x265_12bit21interp_8tap_hv_pp_cpuILi7EEEvPKtlPtlii
libx265.so.200:_ZN10x265_12bit21interp_8tap_hv_pp_cpuILi8EEEvPKtlPtlii
libx265.so.200:_ZN10x265_12bit21interp_8tap_hv_pp_cpuILi9EEEvPKtlPtlii
libx265.so.200:_ZN10x265_12bit21x265_encoder_ctu_infoEP12x265_encoderiPP15x265_ctu_info_t
libx265.so.200:_ZN10x265_12bit21x265_encoder_open_200EP10x265_param
libx265.so.200:_ZN10x265_12bit21x265_encoder_reconfigEP12x265_encoderP10x265_param
libx265.so.200:_ZN10x265_12bit21x265_picturePlaneSizeEiiii
libx265.so.200:_ZN10x265_12bit21x265_setup_primitivesEP10x265_param
libx265.so.200:_ZN10x265_12bit21x265_zone_param_parseEP10x265_paramPKcS3_
libx265.so.200:_ZN10x265_12bit22setupIntraPrimitives_cERNS_17EncoderPrimitivesE
libx265.so.200:_ZN10x265_12bit22setupIntrinsicDCT_sse3ERNS_17EncoderPrimitivesE
libx265.so.200:_ZN10x265_12bit22setupPixelPrimitives_cERNS_17EncoderPrimitivesE
libx265.so.200:_ZN10x265_12bit22x265_encoder_get_statsEP12x265_encoderP10x265_statsj
libx265.so.200:_ZN10x265_12bit22x265_set_analysis_dataEP12x265_encoderP18x265_analysis_dataij
libx265.so.200:_ZN10x265_12bit23setupAssemblyPrimitivesERNS_17EncoderPrimitivesEi
libx265.so.200:_ZN10x265_12bit23setupFilterPrimitives_cERNS_17EncoderPrimitivesE
libx265.so.200:_ZN10x265_12bit23setupIntrinsicDCT_sse41ERNS_17EncoderPrimitivesE
libx265.so.200:_ZN10x265_12bit23setupIntrinsicDCT_ssse3ERNS_17EncoderPrimitivesE
libx265.so.200:_ZN10x265_12bit23x265_encoder_parametersEP12x265_encoderP10x265_param
libx265.so.200:_ZN10x265_12bit23x265_free_analysis_dataEP10x265_paramP18x265_analysis_data
libx265.so.200:_ZN10x265_12bit23x265_get_ref_frame_listEP12x265_encoderPP11x265_picyuvS4_iiPiS5_
libx265.so.200:_ZN10x265_12bit24setupLowPassPrimitives_cERNS_17EncoderPrimitivesE
libx265.so.200:_ZN10x265_12bit24x265_alloc_analysis_dataEP10x265_paramP18x265_analysis_data
libx265.so.200:_ZN10x265_12bit24x265_param_apply_profileEP10x265_paramPKc
libx265.so.200:_ZN10x265_12bit25setupInstrinsicPrimitivesERNS_17EncoderPrimitivesEi
libx265.so.200:_ZN10x265_12bit25x265_param_default_presetEP10x265_paramPKcS3_
libx265.so.200:_ZN10x265_12bit26enableLowpassDCTPrimitivesERNS_17EncoderPrimitivesE
libx265.so.200:_ZN10x265_12bit26x265_encoder_intra_refreshEP12x265_encoder
libx265.so.200:_ZN10x265_12bit26x265_encoder_reconfig_zoneEP12x265_encoderP9x265_zone
libx265.so.200:_ZN10x265_12bit27setupLoopFilterPrimitives_cERNS_17EncoderPrimitivesE
libx265.so.200:_ZN10x265_12bit28setupSeaIntegralPrimitives_cERNS_17EncoderPrimitivesE
libx265.so.200:_ZN10x265_12bit30x265_param_apply_fastfirstpassEP10x265_param
libx265.so.200:_ZN10x265_12bit35x265_get_slicetype_poc_and_scenecutEP12x265_encoderPiS2_S2_
libx265.so.200:_ZN10x265_12bit3DPB10computeRPSEibPNS_3RPSEj
libx265.so.200:_ZN10x265_12bit3DPB13prepareEncodeEPNS_5FrameE
libx265.so.200:_ZN10x265_12bit3DPB14getNalUnitTypeEib
libx265.so.200:_ZN10x265_12bit3DPB19recycleUnreferencedEv
libx265.so.200:_ZN10x265_12bit3DPB22decodingRefreshMarkingEi11NalUnitType
libx265.so.200:_ZN10x265_12bit3DPB24applyReferencePictureSetEPNS_3RPSEi
libx265.so.200:_ZN10x265_12bit3DPBD1Ev
libx265.so.200:_ZN10x265_12bit3DPBD2Ev
libx265.so.200:_ZN10x265_12bit3RPS12sortDeltaPOCEv
libx265.so.200:_ZN10x265_12bit3SAO10resetStatsEv
libx265.so.200:_ZN10x265_12bit3SAO10startSliceEPNS_5FrameERNS_7EntropyE
libx265.so.200:_ZN10x265_12bit3SAO12rdoSaoUnitCuEPNS_8SAOParamEiii
libx265.so.200:_ZN10x265_12bit3SAO13estIterOffsetEiliiRiS1_Rl
libx265.so.200:_ZN10x265_12bit3SAO15calcSaoStatsCTUEii
libx265.so.200:_ZN10x265_12bit3SAO16rdoSaoUnitRowEndEPKNS_8SAOParamEi
libx265.so.200:_ZN10x265_12bit3SAO17applyPixelOffsetsEiii
libx265.so.200:_ZN10x265_12bit3SAO18createFromRootNodeEPS0_
libx265.so.200:_ZN10x265_12bit3SAO19generateLumaOffsetsEPNS_11SaoCtuParamEii
libx265.so.200:_ZN10x265_12bit3SAO21generateChromaOffsetsEPPNS_11SaoCtuParamEii
libx265.so.200:_ZN10x265_12bit3SAO21saoStatsInitialOffsetEii
libx265.so.200:_ZN10x265_12bit3SAO25calcSaoStatsCu_BeforeDblkEPNS_5FrameEii
libx265.so.200:_ZN10x265_12bit3SAO25saoLumaComponentParamDistEPNS_8SAOParamEiRlPlS3_
libx265.so.200:_ZN10x265_12bit3SAO27saoChromaComponentParamDistEPNS_8SAOParamEiRlPlS3_
libx265.so.200:_ZN10x265_12bit3SAO6createEP10x265_parami
libx265.so.200:_ZN10x265_12bit3SAO7destroyEi
libx265.so.200:_ZN10x265_12bit3SAOC1Ev
libx265.so.200:_ZN10x265_12bit3SAOC2Ev
libx265.so.200:_ZN10x265_12bit3SEI12base64DecodeEPci
libx265.so.200:_ZN10x265_12bit3SEI14writeByteAlignEv
libx265.so.200:_ZN10x265_12bit3SEI16writeSEImessagesERNS_9BitstreamERKNS_3SPSE11NalUnitTypeRNS_7NALListEi
libx265.so.200:_ZN10x265_12bit3SEI7setSizeEj
libx265.so.200:_ZN10x265_12bit3Yuv11copyFromYuvERKS0_
libx265.so.200:_ZN10x265_12bit3Yuv13copyPUFromYuvERKS0_jib
libx265.so.200:_ZN10x265_12bit3Yuv14copyFromPicYuvERKNS_6PicYuvEjj
libx265.so.200:_ZN10x265_12bit3Yuv6addAvgERKNS_8ShortYuvES3_jjjbb
libx265.so.200:_ZN10x265_12bit3Yuv6createEji
libx265.so.200:_ZN10x265_12bit3Yuv7addClipERKS0_RKNS_8ShortYuvEji
libx265.so.200:_ZN10x265_12bit3Yuv7destroyEv
libx265.so.200:_ZN10x265_12bit3YuvC1Ev
libx265.so.200:_ZN10x265_12bit3YuvC2Ev
libx265.so.200:_ZN10x265_12bit5Frame15allocEncodeDataEP10x265_paramRKNS_3SPSE
libx265.so.200:_ZN10x265_12bit5Frame6createEP10x265_paramPf
libx265.so.200:_ZN10x265_12bit5Frame6reinitERKNS_3SPSE
libx265.so.200:_ZN10x265_12bit5Frame7destroyEv
libx265.so.200:_ZN10x265_12bit5FrameC1Ev
libx265.so.200:_ZN10x265_12bit5FrameC2Ev
libx265.so.200:_ZN10x265_12bit5Quant11setChromaQPEiNS_8TextTypeEi
libx265.so.200:_ZN10x265_12bit5Quant12getSigCtxIncEjjjjbj
libx265.so.200:_ZN10x265_12bit5Quant12transformNxNERKNS_6CUDataEPKtjPKsjPsjNS_8TextTypeEjb
libx265.so.200:_ZN10x265_12bit5Quant13setQPforQuantERKNS_6CUDataEi
libx265.so.200:_ZN10x265_12bit5Quant14ssimDistortionERKNS_6CUDataEPKtjS5_ljNS_8TextTypeEj
libx265.so.200:_ZN10x265_12bit5Quant15invtransformNxNERKNS_6CUDataEPsjPKsjNS_8TextTypeEbbj
libx265.so.200:_ZN10x265_12bit5Quant16signBitHidingHDQEPsPijRKNS_25TUEntropyCodingParametersEj
libx265.so.200:_ZN10x265_12bit5Quant19allocNoiseReductionERK10x265_param
libx265.so.200:_ZN10x265_12bit5Quant4initEdRKNS_11ScalingListERNS_7EntropyE
libx265.so.200:_ZN10x265_12bit5Quant8rdoQuantILj2EEEjRKNS_6CUDataEPsNS_8TextTypeEjb
libx265.so.200:_ZN10x265_12bit5Quant8rdoQuantILj3EEEjRKNS_6CUDataEPsNS_8TextTypeEjb
libx265.so.200:_ZN10x265_12bit5Quant8rdoQuantILj4EEEjRKNS_6CUDataEPsNS_8TextTypeEjb
libx265.so.200:_ZN10x265_12bit5Quant8rdoQuantILj5EEEjRKNS_6CUDataEPsNS_8TextTypeEjb
libx265.so.200:_ZN10x265_12bit5QuantC1Ev
libx265.so.200:_ZN10x265_12bit5QuantC2Ev
libx265.so.200:_ZN10x265_12bit5QuantD1Ev
libx265.so.200:_ZN10x265_12bit5QuantD2Ev
libx265.so.200:_ZN10x265_12bit5Slice13setRefPicListERNS_7PicListE
libx265.so.200:_ZN10x265_12bit5Slice14disableWeightsEv
libx265.so.200:_ZN10x265_12bit6CUData10initializeERKNS_13CUDataMemPoolEjRK10x265_parami
libx265.so.200:_ZN10x265_12bit6CUData11copyFromPicERKS0_RKNS_6CUGeomEib
libx265.so.200:_ZN10x265_12bit6CUData11setPURefIdxEiaii
libx265.so.200:_ZN10x265_12bit6CUData11setQPSubCUsEajj
libx265.so.200:_ZN10x265_12bit6CUData12calcCTUGeomsEjjjjPNS_6CUGeomE
libx265.so.200:_ZN10x265_12bit6CUData12copyPartFromERKS0_RKNS_6CUGeomEj
libx265.so.200:_ZN10x265_12bit6CUData12setEmptyPartERKNS_6CUGeomEj
libx265.so.200:_ZN10x265_12bit6CUData13setPUInterDirEhjj
libx265.so.200:_ZN10x265_12bit6CUData14initLosslessCUERKS0_RKNS_6CUGeomE
libx265.so.200:_ZN10x265_12bit6CUData7initCTUERKNS_5FrameEjijjj
libx265.so.200:_ZN10x265_12bit6CUData7setPUMvEiRKNS_2MVEii
libx265.so.200:_ZN10x265_12bit6CUData9initSubCUERKS0_RKNS_6CUGeomEi
libx265.so.200:_ZN10x265_12bit6CUDataC1Ev
libx265.so.200:_ZN10x265_12bit6CUDataC2Ev
libx265.so.200:_ZN10x265_12bit6Lowres4initEPNS_6PicYuvEi
libx265.so.200:_ZN10x265_12bit6Lowres6createEP10x265_paramPNS_6PicYuvEj
libx265.so.200:_ZN10x265_12bit6Lowres7destroyEv
libx265.so.200:_ZN10x265_12bit6PicYuv13createOffsetsERKNS_3SPSE
libx265.so.200:_ZN10x265_12bit6PicYuv13getLumaBufLenEjjj
libx265.so.200:_ZN10x265_12bit6PicYuv15copyFromPictureERK12x265_pictureRK10x265_paramii
libx265.so.200:_ZN10x265_12bit6PicYuv6createEP10x265_parambPt
libx265.so.200:_ZN10x265_12bit6PicYuv7destroyEv
libx265.so.200:_ZN10x265_12bit6PicYuvC1Ev
libx265.so.200:_ZN10x265_12bit6PicYuvC2Ev
libx265.so.200:_ZN10x265_12bit6Search10checkIntraERNS_4ModeERKNS_6CUGeomENS_8PartSizeE
libx265.so.200:_ZN10x265_12bit6Search10getBlkBitsENS_8PartSizeEbijPj
libx265.so.200:_ZN10x265_12bit6Search10initSearchERK10x265_paramRNS_11ScalingListE
libx265.so.200:_ZN10x265_12bit6Search10processPMEERNS0_3PMEERS0_
libx265.so.200:_ZN10x265_12bit6Search11getLowresMVERKNS_6CUDataERKNS_14PredictionUnitEii
libx265.so.200:_ZN10x265_12bit6Search14estIntraPredQTERNS_4ModeERKNS_6CUGeomEPKj
libx265.so.200:_ZN10x265_12bit6Search14updateCandListEjmiPjPm
libx265.so.200:_ZN10x265_12bit6Search15codeIntraLumaQTERNS_4ModeERKNS_6CUGeomEjjbRNS0_4CostEPKj
libx265.so.200:_ZN10x265_12bit6Search15mergeEstimationERNS_6CUDataERKNS_6CUGeomERKNS_14PredictionUnitEiRNS0_9MergeDataE
libx265.so.200:_ZN10x265_12bit6Search15offsetSubTUCBFsERNS_6CUDataENS_8TextTypeEjj
libx265.so.200:_ZN10x265_12bit6Search15predInterSearchERNS_4ModeERKNS_6CUGeomEbPj
libx265.so.200:_ZN10x265_12bit6Search15setLambdaFromQPERKNS_6CUDataEii
libx265.so.200:_ZN10x265_12bit6Search17checkIntraInInterERNS_4ModeERKNS_6CUGeomE
libx265.so.200:_ZN10x265_12bit6Search17codeCoeffQTChromaERKNS_6CUDataEjjNS_8TextTypeE
libx265.so.200:_ZN10x265_12bit6Search17codeIntraChromaQtERNS_4ModeERKNS_6CUGeomEjjRNS0_4CostE
libx265.so.200:_ZN10x265_12bit6Search18codeIntraLumaTSkipERNS_4ModeERKNS_6CUGeomEjjRNS0_4CostE
libx265.so.200:_ZN10x265_12bit6Search18encodeIntraInInterERNS_4ModeERKNS_6CUGeomE
libx265.so.200:_ZN10x265_12bit6Search18estimateResidualQTERNS_4ModeERKNS_6CUGeomEjjRNS_8ShortYuvERNS0_4CostEPKji
libx265.so.200:_ZN10x265_12bit6Search18invalidateContextsEi
libx265.so.200:_ZN10x265_12bit6Search18saveResidualQTDataERNS_6CUDataERNS_8ShortYuvEjj
libx265.so.200:_ZN10x265_12bit6Search19estimateNullCbfCostEmjjNS_8TextTypeE
libx265.so.200:_ZN10x265_12bit6Search20checkDQPForSplitPredERNS_4ModeERKNS_6CUGeomE
libx265.so.200:_ZN10x265_12bit6Search20codeInterSubdivCbfQTERNS_6CUDataEjjPKj
libx265.so.200:_ZN10x265_12bit6Search20codeIntraChromaTSkipERNS_4ModeERKNS_6CUGeomEjjjRNS0_4CostE
libx265.so.200:_ZN10x265_12bit6Search20estIntraPredChromaQTERNS_4ModeERKNS_6CUGeomE
libx265.so.200:_ZN10x265_12bit6Search20extractIntraResultQTERNS_6CUDataERNS_3YuvEjj
libx265.so.200:_ZN10x265_12bit6Search21codeSubdivCbfQTChromaERKNS_6CUDataEjj
libx265.so.200:_ZN10x265_12bit6Search21residualQTIntraChromaERNS_4ModeERKNS_6CUGeomEjj
libx265.so.200:_ZN10x265_12bit6Search22getBestIntraModeChromaERNS_4ModeERKNS_6CUGeomE
libx265.so.200:_ZN10x265_12bit6Search22singleMotionEstimationERS0_RNS_4ModeERKNS_14PredictionUnitEiii
libx265.so.200:_ZN10x265_12bit6Search24encodeResAndCalcRdSkipCUERNS_4ModeE
libx265.so.200:_ZN10x265_12bit6Search25encodeResAndCalcRdInterCUERNS_4ModeERKNS_6CUGeomE
libx265.so.200:_ZN10x265_12bit6Search26extractIntraResultChromaQTERNS_6CUDataERNS_3YuvEjj
libx265.so.200:_ZN10x265_12bit6Search27residualTransformQuantInterERNS_4ModeERKNS_6CUGeomEjjPKj
libx265.so.200:_ZN10x265_12bit6Search27residualTransformQuantIntraERNS_4ModeERKNS_6CUGeomEjjPKj
libx265.so.200:_ZN10x265_12bit6Search3PME12processTasksEi
libx265.so.200:_ZN10x265_12bit6Search7splitTUERNS_4ModeERKNS_6CUGeomEjjRNS_8ShortYuvERNS0_4CostEPKji
libx265.so.200:_ZN10x265_12bit6Search8checkDQPERNS_4ModeERKNS_6CUGeomE
libx265.so.200:_ZN10x265_12bit6Search8searchMVERNS_4ModeEiiRNS_2MVEPS3_iS5_
libx265.so.200:_ZN10x265_12bit6Search9selectMVPERKNS_6CUDataERKNS_14PredictionUnitEPKNS_2MVEii
libx265.so.200:_ZN10x265_12bit6Search9updateMVPENS_2MVERKS1_RjS4_S3_
libx265.so.200:_ZN10x265_12bit6SearchC1Ev
libx265.so.200:_ZN10x265_12bit6SearchC2Ev
libx265.so.200:_ZN10x265_12bit6SearchD1Ev
libx265.so.200:_ZN10x265_12bit6SearchD2Ev
libx265.so.200:_ZN10x265_12bit6Thread4stopEv
libx265.so.200:_ZN10x265_12bit6Thread5startEv
libx265.so.200:_ZN10x265_12bit6ThreadC1Ev
libx265.so.200:_ZN10x265_12bit6ThreadC2Ev
libx265.so.200:_ZN10x265_12bit6ThreadD0Ev
libx265.so.200:_ZN10x265_12bit6ThreadD1Ev
libx265.so.200:_ZN10x265_12bit6ThreadD2Ev
libx265.so.200:_ZN10x265_12bit7BitCost13CalculateLogsEv
libx265.so.200:_ZN10x265_12bit7BitCost5setQPEj
libx265.so.200:_ZN10x265_12bit7BitCost7destroyEv
libx265.so.200:_ZN10x265_12bit7Deblock10deblockCTUEPKNS_6CUDataERKNS_6CUGeomEi
libx265.so.200:_ZN10x265_12bit7Deblock14edgeFilterLumaEPKNS_6CUDataEjjiiPKh
libx265.so.200:_ZN10x265_12bit7Deblock15setEdgefilterPUEPKNS_6CUDataEjiPhj
libx265.so.200:_ZN10x265_12bit7Deblock15setEdgefilterTUEPKNS_6CUDataEjjiPh
libx265.so.200:_ZN10x265_12bit7Deblock16edgeFilterChromaEPKNS_6CUDataEjjiiPKh
libx265.so.200:_ZN10x265_12bit7Deblock19getBoundaryStrengthEPKNS_6CUDataEijPKh
libx265.so.200:_ZN10x265_12bit7Deblock21setEdgefilterMultipleEjiihPhj
libx265.so.200:_ZN10x265_12bit7Deblock9deblockCUEPKNS_6CUDataERKNS_6CUGeomEiPh
libx265.so.200:_ZN10x265_12bit7Encoder10computeSSDEPtS1_ljjP10x265_param
libx265.so.200:_ZN10x265_12bit7Encoder10fetchStatsEP10x265_statsm
libx265.so.200:_ZN10x265_12bit7Encoder10getCUIndexEPNS_10cuLocationEPjii
libx265.so.200:_ZN10x265_12bit7Encoder10getPuShapeEPNS_13puOrientationEii
libx265.so.200:_ZN10x265_12bit7Encoder10initRefIdxEv
libx265.so.200:_ZN10x265_12bit7Encoder11ComputePSNREP12x265_pictureS2_P10x265_param
libx265.so.200:_ZN10x265_12bit7Encoder11copyCtuInfoEPP15x265_ctu_info_ti
libx265.so.200:_ZN10x265_12bit7Encoder11copyPictureEP12x265_picturePKS1_
libx265.so.200:_ZN10x265_12bit7Encoder11statsStringERNS_8EncStatsEPc
libx265.so.200:_ZN10x265_12bit7Encoder12printSummaryEv
libx265.so.200:_ZN10x265_12bit7Encoder12updateRefIdxEv
libx265.so.200:_ZN10x265_12bit7Encoder13analyseRefIdxEPi
libx265.so.200:_ZN10x265_12bit7Encoder13configureZoneEP10x265_paramS2_
libx265.so.200:_ZN10x265_12bit7Encoder13findSceneCutsEP12x265_pictureRbddS3_S3_
libx265.so.200:_ZN10x265_12bit7Encoder13updateVbvPlanEPNS_11RateControlE
libx265.so.200:_ZN10x265_12bit7Encoder14getEndNalUnitsERNS_7NALListERNS_9BitstreamE
libx265.so.200:_ZN10x265_12bit7Encoder14normalizeRangeEiiidd
libx265.so.200:_ZN10x265_12bit7Encoder15getRefFrameListEPPNS_6PicYuvES3_iiPiS4_
libx265.so.200:_ZN10x265_12bit7Encoder15isReconfigureRcEP10x265_paramS2_
libx265.so.200:_ZN10x265_12bit7Encoder15readUserSeiFileER16x265_sei_payloadi
libx265.so.200:_ZN10x265_12bit7Encoder15setAnalysisDataEP18x265_analysis_dataij
libx265.so.200:_ZN10x265_12bit7Encoder16finishFrameStatsEPNS_5FrameEPNS_12FrameEncoderEP16x265_frame_statsi
libx265.so.200:_ZN10x265_12bit7Encoder16getStreamHeadersERNS_7NALListERNS_7EntropyERNS_9BitstreamE
libx265.so.200:_ZN10x265_12bit7Encoder16readAnalysisFileEP18x265_analysis_dataiPK12x265_picturei
libx265.so.200:_ZN10x265_12bit7Encoder16readAnalysisFileEP18x265_analysis_dataiPK12x265_pictureiNS_10cuLocationE
libx265.so.200:_ZN10x265_12bit7Encoder16readAnalysisFileEP18x265_analysis_dataii
libx265.so.200:_ZN10x265_12bit7Encoder16reconfigureParamEP10x265_paramS2_
libx265.so.200:_ZN10x265_12bit7Encoder17computeHistogramsEP12x265_picture
libx265.so.200:_ZN10x265_12bit7Encoder17writeAnalysisFileEP18x265_analysis_dataRNS_9FrameDataE
libx265.so.200:_ZN10x265_12bit7Encoder18computeSPSRPSIndexEv
libx265.so.200:_ZN10x265_12bit7Encoder18copyDistortionDataEP18x265_analysis_dataRNS_9FrameDataE
libx265.so.200:_ZN10x265_12bit7Encoder19calcRefreshIntervalEPNS_5FrameE
libx265.so.200:_ZN10x265_12bit7Encoder19computeHistogramSADEPdS1_i
libx265.so.200:_ZN10x265_12bit7Encoder19copyUserSEIMessagesEPNS_5FrameEPK12x265_picture
libx265.so.200:_ZN10x265_12bit7Encoder20validateAnalysisDataEP22x265_analysis_validatei
libx265.so.200:_ZN10x265_12bit7Encoder22printReconfigureParamsEv
libx265.so.200:_ZN10x265_12bit7Encoder23computeDistortionOffsetEP18x265_analysis_data
libx265.so.200:_ZN10x265_12bit7Encoder23writeAnalysisFileRefineEP18x265_analysis_dataRNS_9FrameDataE
libx265.so.200:_ZN10x265_12bit7Encoder25setAnalysisDataAfterZScanEP18x265_analysis_dataPNS_5FrameE
libx265.so.200:_ZN10x265_12bit7Encoder26configureDolbyVisionParamsEP10x265_param
libx265.so.200:_ZN10x265_12bit7Encoder27copySlicetypePocAndSceneCutEPiS1_S1_
libx265.so.200:_ZN10x265_12bit7Encoder30configureVideoSignalTypePresetEP10x265_param
libx265.so.200:_ZN10x265_12bit7Encoder6createEv
libx265.so.200:_ZN10x265_12bit7Encoder6encodeEPK12x265_picturePS1_
libx265.so.200:_ZN10x265_12bit7Encoder7destroyEv
libx265.so.200:_ZN10x265_12bit7Encoder7initPPSEPNS_3PPSE
libx265.so.200:_ZN10x265_12bit7Encoder7initSPSEPNS_3SPSE
libx265.so.200:_ZN10x265_12bit7Encoder7initVPSEPNS_3VPSE
libx265.so.200:_ZN10x265_12bit7Encoder8stopJobsEv
libx265.so.200:_ZN10x265_12bit7Encoder9configureEP10x265_param
libx265.so.200:_ZN10x265_12bit7EncoderC1Ev
libx265.so.200:_ZN10x265_12bit7EncoderC2Ev
libx265.so.200:_ZN10x265_12bit7Entropy10codePUWiseERKNS_6CUDataEj
libx265.so.200:_ZN10x265_12bit7Entropy11codeDeltaQPERKNS_6CUDataEj
libx265.so.200:_ZN10x265_12bit7Entropy11encodeBinEPEj
libx265.so.200:_ZN10x265_12bit7Entropy12codeCoeffNxNERKNS_6CUDataEPKsjjNS_8TextTypeE
libx265.so.200:_ZN10x265_12bit7Entropy12codeInterDirERKNS_6CUDataEj
libx265.so.200:_ZN10x265_12bit7Entropy12codePartSizeERKNS_6CUDataEjj
libx265.so.200:_ZN10x265_12bit7Entropy12codePredInfoERKNS_6CUDataEj
libx265.so.200:_ZN10x265_12bit7Entropy12encodeBinTrmEj
libx265.so.200:_ZN10x265_12bit7Entropy12encodeBinsEPEji
libx265.so.200:_ZN10x265_12bit7Entropy12resetEntropyERKNS_5SliceE
libx265.so.200:_ZN10x265_12bit7Entropy13codeRefFrmIdxERKNS_6CUDataEji
libx265.so.200:_ZN10x265_12bit7Entropy13codeSaoOffsetERKNS_11SaoCtuParamEi
libx265.so.200:_ZN10x265_12bit7Entropy14codeMergeIndexERKNS_6CUDataEj
libx265.so.200:_ZN10x265_12bit7Entropy14codeSaoMaxUvlcEjj
libx265.so.200:_ZN10x265_12bit7Entropy15codeProfileTierERKNS_16ProfileTierLevelEi
libx265.so.200:_ZN10x265_12bit7Entropy15codeQtCbfChromaERKNS_6CUDataEjNS_8TextTypeEjb
libx265.so.200:_ZN10x265_12bit7Entropy15codeRefFrmIdxPUERKNS_6CUDataEji
libx265.so.200:_ZN10x265_12bit7Entropy15codeSaoOffsetBOEPiii
libx265.so.200:_ZN10x265_12bit7Entropy15codeSaoOffsetEOEPiii
libx265.so.200:_ZN10x265_12bit7Entropy15codeScalingListERKNS_11ScalingListE
libx265.so.200:_ZN10x265_12bit7Entropy15codeScalingListERKNS_11ScalingListEjj
libx265.so.200:_ZN10x265_12bit7Entropy15codeSliceHeaderERKNS_5SliceERNS_9FrameDataEjji
libx265.so.200:_ZN10x265_12bit7Entropy15encodeTransformERKNS_6CUDataEjjjRbPKj
libx265.so.200:_ZN10x265_12bit7Entropy15writeEpExGolombEjj
libx265.so.200:_ZN10x265_12bit7Entropy16copyContextsFromERKS0_
libx265.so.200:_ZN10x265_12bit7Entropy17codeHrdParametersERKNS_7HRDInfoEi
libx265.so.200:_ZN10x265_12bit7Entropy18codeIntraDirChromaERKNS_6CUDataEjPj
libx265.so.200:_ZN10x265_12bit7Entropy19codeIntraDirLumaAngERKNS_6CUDataEjb
libx265.so.200:_ZN10x265_12bit7Entropy19codePredWeightTableERKNS_5SliceE
libx265.so.200:_ZN10x265_12bit7Entropy19encodeTransformLumaERKNS_6CUDataEjjjRbPKj
libx265.so.200:_ZN10x265_12bit7Entropy19writeUnaryMaxSymbolEjPhij
libx265.so.200:_ZN10x265_12bit7Entropy20loadIntraDirModeLumaERKS0_
libx265.so.200:_ZN10x265_12bit7Entropy22codeShortTermRefPicSetERKNS_3RPSEi
libx265.so.200:_ZN10x265_12bit7Entropy23writeCoefRemainExGolombEjj
libx265.so.200:_ZN10x265_12bit7Entropy29codeSliceHeaderWPPEntryPointsEPKjjj
libx265.so.200:_ZN10x265_12bit7Entropy5startEv
libx265.so.200:_ZN10x265_12bit7Entropy6finishEv
libx265.so.200:_ZN10x265_12bit7Entropy7codeAUDERKNS_5SliceE
libx265.so.200:_ZN10x265_12bit7Entropy7codeMvdERKNS_6CUDataEji
libx265.so.200:_ZN10x265_12bit7Entropy7codePPSERKNS_3PPSEbi
libx265.so.200:_ZN10x265_12bit7Entropy7codeSPSERKNS_3SPSERKNS_11ScalingListERKNS_16ProfileTierLevelE
libx265.so.200:_ZN10x265_12bit7Entropy7codeVPSERKNS_3VPSE
libx265.so.200:_ZN10x265_12bit7Entropy7codeVUIERKNS_3VUIEibb
libx265.so.200:_ZN10x265_12bit7Entropy8copyFromERKS0_
libx265.so.200:_ZN10x265_12bit7Entropy8encodeCUERKNS_6CUDataERKNS_6CUGeomEjjRb
libx265.so.200:_ZN10x265_12bit7Entropy8finishCUERKNS_6CUDataEjjb
libx265.so.200:_ZN10x265_12bit7Entropy8writeOutEv
libx265.so.200:_ZN10x265_12bit7Entropy9codeCoeffERKNS_6CUDataEjRbPKj
libx265.so.200:_ZN10x265_12bit7Entropy9copyStateERKS0_
libx265.so.200:_ZN10x265_12bit7Entropy9encodeBinEjRh
libx265.so.200:_ZN10x265_12bit7Entropy9encodeCTUERKNS_6CUDataERKNS_6CUGeomE
libx265.so.200:_ZN10x265_12bit7Entropy9resetBitsEv
libx265.so.200:_ZN10x265_12bit7EntropyC1Ev
libx265.so.200:_ZN10x265_12bit7EntropyC2Ev
libx265.so.200:_ZN10x265_12bit7MD5InitEPNS_10MD5ContextE
libx265.so.200:_ZN10x265_12bit7NALList12takeContentsERS0_
libx265.so.200:_ZN10x265_12bit7NALList19serializeSubstreamsEPjjPKNS_9BitstreamE
libx265.so.200:_ZN10x265_12bit7NALList9serializeE11NalUnitTypeRKNS_9BitstreamE
libx265.so.200:_ZN10x265_12bit7NALListC1Ev
libx265.so.200:_ZN10x265_12bit7NALListC2Ev
libx265.so.200:_ZN10x265_12bit7PicList11getCurFrameEv
libx265.so.200:_ZN10x265_12bit7PicList6getPOCEi
libx265.so.200:_ZN10x265_12bit7PicList6removeERNS_5FrameE
libx265.so.200:_ZN10x265_12bit7PicList7popBackEv
libx265.so.200:_ZN10x265_12bit7PicList8popFrontEv
libx265.so.200:_ZN10x265_12bit7PicList8pushBackERNS_5FrameE
libx265.so.200:_ZN10x265_12bit7PicList9pushFrontERNS_5FrameE
libx265.so.200:_ZN10x265_12bit7Predict12allocBuffersEi
libx265.so.200:_ZN10x265_12bit7Predict14initAdiPatternERKNS_6CUDataERKNS_6CUGeomEjRKNS0_14IntraNeighborsEi
libx265.so.200:_ZN10x265_12bit7Predict16predIntraLumaAngEjPtlj
libx265.so.200:_ZN10x265_12bit7Predict18initIntraNeighborsERKNS_6CUDataEjjbPNS0_14IntraNeighborsE
libx265.so.200:_ZN10x265_12bit7Predict18motionCompensationERKNS_6CUDataERKNS_14PredictionUnitERNS_3YuvEbb
libx265.so.200:_ZN10x265_12bit7Predict18predIntraChromaAngEjPtlj
libx265.so.200:_ZN10x265_12bit7Predict20fillReferenceSamplesEPKtlRKNS0_14IntraNeighborsEPt
libx265.so.200:_ZN10x265_12bit7Predict20initAdiPatternChromaERKNS_6CUDataERKNS_6CUGeomEjRKNS0_14IntraNeighborsEj
libx265.so.200:_ZN10x265_12bit7PredictC1Ev
libx265.so.200:_ZN10x265_12bit7PredictC2Ev
libx265.so.200:_ZN10x265_12bit7PredictD1Ev
libx265.so.200:_ZN10x265_12bit7PredictD2Ev
libx265.so.200:_ZN10x265_12bit8Analysis10aqQPOffsetERKNS_6CUDataERKNS_6CUGeomE
libx265.so.200:_ZN10x265_12bit8Analysis10classifyCUERKNS_6CUDataERKNS_6CUGeomERKNS_4ModeERNS0_12TrainingDataE
libx265.so.200:_ZN10x265_12bit8Analysis10normFactorEPKtjRNS_6CUDataEiNS_8TextTypeE
libx265.so.200:_ZN10x265_12bit8Analysis10qprdRefineERKNS_6CUDataERKNS_6CUGeomEii
libx265.so.200:_ZN10x265_12bit8Analysis11compressCTUERNS_6CUDataERNS_5FrameERKNS_6CUGeomERKNS_7EntropyE
libx265.so.200:_ZN10x265_12bit8Analysis11loadTUDepthENS_6CUGeomENS_6CUDataE
libx265.so.200:_ZN10x265_12bit8Analysis11tryLosslessERKNS_6CUGeomE
libx265.so.200:_ZN10x265_12bit8Analysis12processPmodeERNS0_5PMODEERS0_
libx265.so.200:_ZN10x265_12bit8Analysis13encodeResidueERKNS_6CUDataERKNS_6CUGeomE
libx265.so.200:_ZN10x265_12bit8Analysis14cuTreeQPOffsetERKNS_6CUDataERKNS_6CUGeomE
libx265.so.200:_ZN10x265_12bit8Analysis15checkBidir2Nx2NERNS_4ModeES2_RKNS_6CUGeomE
libx265.so.200:_ZN10x265_12bit8Analysis15compressIntraCUERKNS_6CUDataERKNS_6CUGeomEi
libx265.so.200:_ZN10x265_12bit8Analysis15topSkipMinDepthERKNS_6CUDataERKNS_6CUGeomE
libx265.so.200:_ZN10x265_12bit8Analysis16addSplitFlagCostERNS_4ModeEj
libx265.so.200:_ZN10x265_12bit8Analysis16checkInter_rd0_4ERNS_4ModeERKNS_6CUGeomENS_8PartSizeEPj
libx265.so.200:_ZN10x265_12bit8Analysis16checkInter_rd5_6ERNS_4ModeERKNS_6CUGeomENS_8PartSizeEPj
libx265.so.200:_ZN10x265_12bit8Analysis17complexityCheckCUERKNS_4ModeE
libx265.so.200:_ZN10x265_12bit8Analysis19calculateCUVarianceERKNS_6CUDataERKNS_6CUGeomE
libx265.so.200:_ZN10x265_12bit8Analysis19calculateNormFactorERNS_6CUDataEi
libx265.so.200:_ZN10x265_12bit8Analysis19collectPUStatisticsERKNS_6CUDataERKNS_6CUGeomE
libx265.so.200:_ZN10x265_12bit8Analysis19recursionDepthCheckERKNS_6CUDataERKNS_6CUGeomERKNS_4ModeE
libx265.so.200:_ZN10x265_12bit8Analysis20calculateQpforCuSizeERKNS_6CUDataERKNS_6CUGeomEid
libx265.so.200:_ZN10x265_12bit8Analysis20compressInterCU_distERKNS_6CUDataERKNS_6CUGeomEi
libx265.so.200:_ZN10x265_12bit8Analysis21checkMerge2Nx2N_rd0_4ERNS_4ModeES2_RKNS_6CUGeomE
libx265.so.200:_ZN10x265_12bit8Analysis21checkMerge2Nx2N_rd5_6ERNS_4ModeES2_RKNS_6CUGeomE
libx265.so.200:_ZN10x265_12bit8Analysis21compressInterCU_rd0_4ERKNS_6CUDataERKNS_6CUGeomEi
libx265.so.200:_ZN10x265_12bit8Analysis21compressInterCU_rd5_6ERKNS_6CUDataERKNS_6CUGeomEi
libx265.so.200:_ZN10x265_12bit8Analysis23findSameContentRefCountERKNS_6CUDataERKNS_6CUGeomE
libx265.so.200:_ZN10x265_12bit8Analysis5PMODE12processTasksEi
libx265.so.200:_ZN10x265_12bit8Analysis6createEPNS_15ThreadLocalDataE
libx265.so.200:_ZN10x265_12bit8Analysis7destroyEv
libx265.so.200:_ZN10x265_12bit8Analysis7trainCUERKNS_6CUDataERKNS_6CUGeomERKNS_4ModeERNS0_12TrainingDataE
libx265.so.200:_ZN10x265_12bit8Analysis8recodeCUERKNS_6CUDataERKNS_6CUGeomEii
libx265.so.200:_ZN10x265_12bit8AnalysisC1Ev
libx265.so.200:_ZN10x265_12bit8AnalysisC2Ev
libx265.so.200:_ZN10x265_12bit8EncStats5addQPEd
libx265.so.200:_ZN10x265_12bit8EncStats7addBitsEm
libx265.so.200:_ZN10x265_12bit8EncStats7addPsnrEddd
libx265.so.200:_ZN10x265_12bit8EncStats7addSsimEd
libx265.so.200:_ZN10x265_12bit8MD5FinalEPNS_10MD5ContextEPh
libx265.so.200:_ZN10x265_12bit8ShortYuv5clearEv
libx265.so.200:_ZN10x265_12bit8ShortYuv6createEji
libx265.so.200:_ZN10x265_12bit8ShortYuv7destroyEv
libx265.so.200:_ZN10x265_12bit8ShortYuv8subtractERKNS_3YuvES3_ji
libx265.so.200:_ZN10x265_12bit8ShortYuvC1Ev
libx265.so.200:_ZN10x265_12bit8ShortYuvC2Ev
libx265.so.200:_ZN10x265_12bit8sbacInitEii
libx265.so.200:_ZN10x265_12bit9Bitstream13writeAlignOneEv
libx265.so.200:_ZN10x265_12bit9Bitstream14writeAlignZeroEv
libx265.so.200:_ZN10x265_12bit9Bitstream18writeByteAlignmentEv
libx265.so.200:_ZN10x265_12bit9Bitstream5writeEjj
libx265.so.200:_ZN10x265_12bit9Bitstream9push_backEh
libx265.so.200:_ZN10x265_12bit9Bitstream9writeByteEj
libx265.so.200:_ZN10x265_12bit9BitstreamC1Ev
libx265.so.200:_ZN10x265_12bit9BitstreamC2Ev
libx265.so.200:_ZN10x265_12bit9FrameData6createERK10x265_paramRKNS_3SPSEi
libx265.so.200:_ZN10x265_12bit9FrameData6reinitERKNS_3SPSE
libx265.so.200:_ZN10x265_12bit9FrameData7destroyEv
libx265.so.200:_ZN10x265_12bit9FrameDataC1Ev
libx265.so.200:_ZN10x265_12bit9FrameDataC2Ev
libx265.so.200:_ZN10x265_12bit9Lookahead10addPictureERNS_5FrameE
libx265.so.200:_ZN10x265_12bit9Lookahead10addPictureERNS_5FrameEi
libx265.so.200:_ZN10x265_12bit9Lookahead12cuTreeFinishEPNS_6LowresEdi
libx265.so.200:_ZN10x265_12bit9Lookahead12vbvFrameCostEPPNS_6LowresEiii
libx265.so.200:_ZN10x265_12bit9Lookahead12vbvLookaheadEPPNS_6LowresEii
libx265.so.200:_ZN10x265_12bit9Lookahead13slicetypePathEPPNS_6LowresEiPA251_c
libx265.so.200:_ZN10x265_12bit9Lookahead15slicetypeDecideEv
libx265.so.200:_ZN10x265_12bit9Lookahead16scenecutInternalEPPNS_6LowresEiib
libx265.so.200:_ZN10x265_12bit9Lookahead16slicetypeAnalyseEPPNS_6LowresEb
libx265.so.200:_ZN10x265_12bit9Lookahead17getDecidedPictureEv
libx265.so.200:_ZN10x265_12bit9Lookahead17setLookaheadQueueEv
libx265.so.200:_ZN10x265_12bit9Lookahead17slicetypePathCostEPPNS_6LowresEPcl
libx265.so.200:_ZN10x265_12bit9Lookahead19checkLookaheadQueueERi
libx265.so.200:_ZN10x265_12bit9Lookahead19estimateCUPropagateEPPNS_6LowresEdiiii
libx265.so.200:_ZN10x265_12bit9Lookahead20frameCostRecalculateEPPNS_6LowresEiii
libx265.so.200:_ZN10x265_12bit9Lookahead21computeCUTreeQpOffsetEPNS_6LowresEdi
libx265.so.200:_ZN10x265_12bit9Lookahead23getEstimatedPictureCostEPNS_5FrameE
libx265.so.200:_ZN10x265_12bit9Lookahead28calcMotionAdaptiveQuantFrameEPPNS_6LowresEiii
libx265.so.200:_ZN10x265_12bit9Lookahead5flushEv
libx265.so.200:_ZN10x265_12bit9Lookahead6createEv
libx265.so.200:_ZN10x265_12bit9Lookahead6cuTreeEPPNS_6LowresEib
libx265.so.200:_ZN10x265_12bit9Lookahead7destroyEv
libx265.so.200:_ZN10x265_12bit9Lookahead7findJobEi
libx265.so.200:_ZN10x265_12bit9Lookahead8aqMotionEPPNS_6LowresEb
libx265.so.200:_ZN10x265_12bit9Lookahead8scenecutEPPNS_6LowresEiibi
libx265.so.200:_ZN10x265_12bit9Lookahead8stopJobsEv
libx265.so.200:_ZN10x265_12bit9LookaheadC1EP10x265_paramPNS_10ThreadPoolE
libx265.so.200:_ZN10x265_12bit9LookaheadC2EP10x265_paramPNS_10ThreadPoolE
libx265.so.200:_ZN10x265_12bit9MD5UpdateEPNS_10MD5ContextEPhj
libx265.so.200:_ZN10x265_12bit9WaveFront10dequeueRowEi
libx265.so.200:_ZN10x265_12bit9WaveFront10enqueueRowEi
libx265.so.200:_ZN10x265_12bit9WaveFront13enableAllRowsEv
libx265.so.200:_ZN10x265_12bit9WaveFront19clearEnabledRowMaskEv
libx265.so.200:_ZN10x265_12bit9WaveFront4initEi
libx265.so.200:_ZN10x265_12bit9WaveFront7findJobEi
libx265.so.200:_ZN10x265_12bit9WaveFront9enableRowEi
libx265.so.200:_ZN10x265_12bit9WaveFrontD0Ev
libx265.so.200:_ZN10x265_12bit9WaveFrontD1Ev
libx265.so.200:_ZN10x265_12bit9WaveFrontD2Ev
libx265.so.200:_ZN10x265_12bit9crcFinishERjPh
libx265.so.200:_ZN10x265_12bit9detect512Ev
libx265.so.200:_ZN10x265_12bit9updateCRCEPKtRjjjl
libx265.so.200:_ZN10x265_12bit9x265_atofEPKcRb
libx265.so.200:_ZN10x265_12bit9x265_atoiEPKcRb
libx265.so.200:_ZN10x265_12bit9x265_freeEPv
libx265.so.200:_ZN16metadataFromJson17fillMetadataArrayERKSt6vectorIN6json114JsonESaIS2_EEiNS_8JsonTypeERPh
libx265.so.200:_ZN16metadataFromJson21frameMetadataFromJsonEPKciRPh
libx265.so.200:_ZN16metadataFromJson21movieMetadataFromJsonEPKcRPPh
libx265.so.200:_ZN16metadataFromJson33extendedInfoFrameMetadataFromJsonEPKciRPh
libx265.so.200:_ZN16metadataFromJson38movieExtendedInfoFrameMetadataFromJsonEPKcRPPh
libx265.so.200:_ZN16metadataFromJson5clearERPPhi
libx265.so.200:_ZN16metadataFromJsonC1Ev
libx265.so.200:_ZN16metadataFromJsonC2Ev
libx265.so.200:_ZN16metadataFromJsonD1Ev
libx265.so.200:_ZN16metadataFromJsonD2Ev
libx265.so.200:_ZN4x26510ThreadPool11getCpuCountEv
libx265.so.200:_ZN4x26510ThreadPool11stopWorkersEv
libx265.so.200:_ZN4x26510ThreadPool12tryBondPeersEimRNS_15BondedTaskGroupE
libx265.so.200:_ZN4x26510ThreadPool16allocThreadPoolsEP10x265_paramRib
libx265.so.200:_ZN4x26510ThreadPool16getNumaNodeCountEv
libx265.so.200:_ZN4x26510ThreadPool20getFrameThreadsCountEP10x265_parami
libx265.so.200:_ZN4x26510ThreadPool21setThreadNodeAffinityEPv
libx265.so.200:_ZN4x26510ThreadPool24setCurrentThreadAffinityEv
libx265.so.200:_ZN4x26510ThreadPool24tryAcquireSleepingThreadEmm
libx265.so.200:_ZN4x26510ThreadPool5startEv
libx265.so.200:_ZN4x26510ThreadPool6createEiim
libx265.so.200:_ZN4x26510ThreadPoolC1Ev
libx265.so.200:_ZN4x26510ThreadPoolC2Ev
libx265.so.200:_ZN4x26510ThreadPoolD1Ev
libx265.so.200:_ZN4x26510ThreadPoolD2Ev
libx265.so.200:_ZN4x26510cpu_detectEb
libx265.so.200:_ZN4x26510edgeFilterEPNS_5FrameEP10x265_param
libx265.so.200:_ZN4x26510x265_mdateEv
libx265.so.200:_ZN4x26511FrameFilter10processRowEi
libx265.so.200:_ZN4x26511FrameFilter14ParallelFilter12processTasksEi
libx265.so.200:_ZN4x26511FrameFilter14ParallelFilter13processSaoCTUEPNS_8SAOParamEi
libx265.so.200:_ZN4x26511FrameFilter14ParallelFilter15copySaoAboveRefEPKNS_6CUDataEPNS_6PicYuvEji
libx265.so.200:_ZN4x26511FrameFilter14processPostRowEi
libx265.so.200:_ZN4x26511FrameFilter17computeMEIntegralEi
libx265.so.200:_ZN4x26511FrameFilter4initEPNS_7EncoderEPNS_12FrameEncoderEij
libx265.so.200:_ZN4x26511FrameFilter5startEPNS_5FrameERNS_7EntropyE
libx265.so.200:_ZN4x26511FrameFilter7destroyEv
libx265.so.200:_ZN4x26511JobProvider10tryWakeOneEv
libx265.so.200:_ZN4x26511RateControl10clipQscaleEPNS_5FrameEPNS_16RateControlEntryEd
libx265.so.200:_ZN4x26511RateControl10splitbUsedEPcPNS_16RateControlEntryE
libx265.so.200:_ZN4x26511RateControl11hrdFullnessEPNS_18SEIBufferingPeriodE
libx265.so.200:_ZN4x26511RateControl11predictSizeEPNS_9PredictorEdd
libx265.so.200:_ZN4x26511RateControl12fixUnderflowEiiddd
libx265.so.200:_ZN4x26511RateControl13findUnderflowEPdPiS2_ii
libx265.so.200:_ZN4x26511RateControl13reconfigureRCEv
libx265.so.200:_ZN4x26511RateControl13splitdeltaPOCEPcPNS_16RateControlEntryE
libx265.so.200:_ZN4x26511RateControl13updateVbvPlanEPNS_7EncoderE
libx265.so.200:_ZN4x26511RateControl14accumPQpUpdateEv
libx265.so.200:_ZN4x26511RateControl14forwardMaskingEPNS_5FrameEd
libx265.so.200:_ZN4x26511RateControl14rateControlEndEPNS_5FrameElPNS_16RateControlEntryEPi
libx265.so.200:_ZN4x26511RateControl15analyseABR2PassEm
libx265.so.200:_ZN4x26511RateControl15backwardMaskingEPNS_5FrameEd
libx265.so.200:_ZN4x26511RateControl15updatePredictorEPNS_9PredictorEddd
libx265.so.200:_ZN4x26511RateControl16checkAndResetABREPNS_16RateControlEntryEb
libx265.so.200:_ZN4x26511RateControl16getPredictorTypeEii
libx265.so.200:_ZN4x26511RateControl16rateControlStartEPNS_5FrameEPNS_16RateControlEntryEPNS_7EncoderE
libx265.so.200:_ZN4x26511RateControl17countExpectedBitsEii
libx265.so.200:_ZN4x26511RateControl17rowVbvRateControlEPNS_5FrameEjPNS_16RateControlEntryERdPjj
libx265.so.200:_ZN4x26511RateControl17tuneQScaleForZoneEPNS_16RateControlEntryEd
libx265.so.200:_ZN4x26511RateControl18cuTreeReadFor2PassEPNS_5FrameE
libx265.so.200:_ZN4x26511RateControl18predictRowsSizeSumEPNS_5FrameEPNS_16RateControlEntryEdRi
libx265.so.200:_ZN4x26511RateControl18rateEstimateQscaleEPNS_5FrameEPNS_16RateControlEntryE
libx265.so.200:_ZN4x26511RateControl18setFinalFrameCountEi
libx265.so.200:_ZN4x26511RateControl18tuneQScaleForGrainEd
libx265.so.200:_ZN4x26511RateControl19initFramePredictorsEv
libx265.so.200:_ZN4x26511RateControl20getDiffLimitedQScaleEPNS_16RateControlEntryEd
libx265.so.200:_ZN4x26511RateControl20rateControlSliceTypeEi
libx265.so.200:_ZN4x26511RateControl22rateControlUpdateStatsEPNS_16RateControlEntryE
libx265.so.200:_ZN4x26511RateControl25tuneAbrQScaleFromFeedbackEd
libx265.so.200:_ZN4x26511RateControl26writeRateControlFrameStatsEPNS_5FrameEPNS_16RateControlEntryE
libx265.so.200:_ZN4x26511RateControl4initERKNS_3SPSE
libx265.so.200:_ZN4x26511RateControl7destroyEv
libx265.so.200:_ZN4x26511RateControl7getZoneEv
libx265.so.200:_ZN4x26511RateControl7initHRDERNS_3SPSE
libx265.so.200:_ZN4x26511RateControl8vbv2PassEmii
libx265.so.200:_ZN4x26511RateControl9getQScaleEPNS_16RateControlEntryEd
libx265.so.200:_ZN4x26511RateControl9initPass2Ev
libx265.so.200:_ZN4x26511RateControl9terminateEv
libx265.so.200:_ZN4x26511RateControl9updateVbvElPNS_16RateControlEntryE
libx265.so.200:_ZN4x26511RateControlC1ER10x265_paramPNS_7EncoderE
libx265.so.200:_ZN4x26511RateControlC2ER10x265_paramPNS_7EncoderE
libx265.so.200:_ZN4x26511ScalerSlice11createLinesEii
libx265.so.200:_ZN4x26511ScalerSlice11initFromSrcEPPhPKiiiiiii
libx265.so.200:_ZN4x26511ScalerSlice12destroyLinesEv
libx265.so.200:_ZN4x26511ScalerSlice6createEiiiii
libx265.so.200:_ZN4x26511ScalerSlice6rotateEii
libx265.so.200:_ZN4x26511ScalerSlice7destroyEv
libx265.so.200:_ZN4x26511ScalerSlice8fillOnesEii
libx265.so.200:_ZN4x26511ScalerSliceC1Ev
libx265.so.200:_ZN4x26511ScalerSliceC2Ev
libx265.so.200:_ZN4x26511ScalingList16parseScalingListEPKc
libx265.so.200:_ZN4x26511ScalingList18setupQuantMatricesEi
libx265.so.200:_ZN4x26511ScalingList19processDefaultMarixEii
libx265.so.200:_ZN4x26511ScalingList21processScalingListDecEPiS1_iiiiii
libx265.so.200:_ZN4x26511ScalingList21processScalingListEncEPiS1_iiiiii
libx265.so.200:_ZN4x26511ScalingList21setDefaultScalingListEv
libx265.so.200:_ZN4x26511ScalingList4initEv
libx265.so.200:_ZN4x26511ScalingListC1Ev
libx265.so.200:_ZN4x26511ScalingListC2Ev
libx265.so.200:_ZN4x26511ScalingListD1Ev
libx265.so.200:_ZN4x26511ScalingListD2Ev
libx265.so.200:_ZN4x26511computeEdgeEPtS0_S0_liibt
libx265.so.200:_ZN4x26511general_logEPK10x265_paramPKciS4_z
libx265.so.200:_ZN4x26511getBsLengthEi
libx265.so.200:_ZN4x26511x265_mallocEm
libx265.so.200:_ZN4x26512FrameEncoder10processRowEii
libx265.so.200:_ZN4x26512FrameEncoder10threadMainEv
libx265.so.200:_ZN4x26512FrameEncoder11encodeSliceEj
libx265.so.200:_ZN4x26512FrameEncoder13compressFrameEv
libx265.so.200:_ZN4x26512FrameEncoder14WeightAnalysis12processTasksEi
libx265.so.200:_ZN4x26512FrameEncoder15initializeGeomsEv
libx265.so.200:_ZN4x26512FrameEncoder16writeToneMapInfoEP16x265_sei_payload
libx265.so.200:_ZN4x26512FrameEncoder17collectDynDataRowERNS_6CUDataEPNS_10FrameStatsE
libx265.so.200:_ZN4x26512FrameEncoder17getEncodedPictureERNS_7NALListE
libx265.so.200:_ZN4x26512FrameEncoder17processRowEncoderEiRNS_15ThreadLocalDataE
libx265.so.200:_ZN4x26512FrameEncoder18startCompressFrameEPNS_5FrameE
libx265.so.200:_ZN4x26512FrameEncoder19collectDynDataFrameEv
libx265.so.200:_ZN4x26512FrameEncoder20collectCTUStatisticsERKNS_6CUDataEPNS_10FrameStatsE
libx265.so.200:_ZN4x26512FrameEncoder20noiseReductionUpdateEv
libx265.so.200:_ZN4x26512FrameEncoder22computeAvgTrainingDataEv
libx265.so.200:_ZN4x26512FrameEncoder24writeTrailingSEIMessagesEv
libx265.so.200:_ZN4x26512FrameEncoder25initDecodedPictureHashSEIEiii
libx265.so.200:_ZN4x26512FrameEncoder4initEPNS_7EncoderEii
libx265.so.200:_ZN4x26512FrameEncoder7destroyEv
libx265.so.200:_ZN4x26512FrameEncoderC1Ev
libx265.so.200:_ZN4x26512FrameEncoderC2Ev
libx265.so.200:_ZN4x26512LookaheadTLD10acEnergyCuEPNS_5FrameEjjij
libx265.so.200:_ZN4x26512LookaheadTLD11xPreanalyzeEPNS_5FrameE
libx265.so.200:_ZN4x26512LookaheadTLD13edgeDensityCuEPNS_5FrameERjjjj
libx265.so.200:_ZN4x26512LookaheadTLD13xPreanalyzeQpEPNS_5FrameE
libx265.so.200:_ZN4x26512LookaheadTLD14weightCostLumaERNS_6LowresES2_RNS_11WeightParamE
libx265.so.200:_ZN4x26512LookaheadTLD14weightsAnalyseERNS_6LowresES2_
libx265.so.200:_ZN4x26512LookaheadTLD16allocWeightedRefERNS_6LowresE
libx265.so.200:_ZN4x26512LookaheadTLD19lowresIntraEstimateERNS_6LowresEj
libx265.so.200:_ZN4x26512LookaheadTLD22calcAdaptiveQuantFrameEPNS_5FrameEP10x265_param
libx265.so.200:_ZN4x26512LookaheadTLD9lumaSumCuEPNS_5FrameEjjj
libx265.so.200:_ZN4x26512MD5TransformEPjS0_
libx265.so.200:_ZN4x26512ScalerFilter9initCoeffEiiiiiiii
libx265.so.200:_ZN4x26512ScalerFilterC1Ev
libx265.so.200:_ZN4x26512ScalerFilterC2Ev
libx265.so.200:_ZN4x26512ScalerFilterD0Ev
libx265.so.200:_ZN4x26512ScalerFilterD1Ev
libx265.so.200:_ZN4x26512ScalerFilterD2Ev
libx265.so.200:_ZN4x26512WorkerThread10threadMainEv
libx265.so.200:_ZN4x26512enforceLevelER10x265_paramRNS_3VPSE
libx265.so.200:_ZN4x26512parseCpuNameEPKcRbb
libx265.so.200:_ZN4x26512x265_ssim2dBEd
libx265.so.200:_ZN4x26513weightAnalyseERNS_5SliceERNS_5FrameER10x265_param
libx265.so.200:_ZN4x26513x265_exp2fix8Ed
libx265.so.200:_ZN4x26514MotionEstimate10initScalesEv
libx265.so.200:_ZN4x26514MotionEstimate11setSourcePUEPtlliiiiii
libx265.so.200:_ZN4x26514MotionEstimate11setSourcePUERKNS_3YuvEiiiiiiib
libx265.so.200:_ZN4x26514MotionEstimate13subpelCompareEPNS_15ReferencePlanesERKNS_2MVEPFiPKtlS7_lE
libx265.so.200:_ZN4x26514MotionEstimate14motionEstimateEPNS_15ReferencePlanesERKNS_2MVES5_S5_iPS4_iRS3_jPt
libx265.so.200:_ZN4x26514MotionEstimate18hpelIterationCountEi
libx265.so.200:_ZN4x26514MotionEstimate4initEi
libx265.so.200:_ZN4x26514MotionEstimate8refineMVEPNS_15ReferencePlanesERKNS_2MVES5_S5_RS3_
libx265.so.200:_ZN4x26514MotionEstimateC1Ev
libx265.so.200:_ZN4x26514MotionEstimateC2Ev
libx265.so.200:_ZN4x26514MotionEstimateD1Ev
libx265.so.200:_ZN4x26514MotionEstimateD2Ev
libx265.so.200:_ZN4x26514PredictionUnitC1ERKNS_6CUDataERKNS_6CUGeomEi
libx265.so.200:_ZN4x26514PredictionUnitC2ERKNS_6CUDataERKNS_6CUGeomEi
libx265.so.200:_ZN4x26514checksumFinishEjPh
libx265.so.200:_ZN4x26514determineLevelERK10x265_paramRNS_3VPSE
libx265.so.200:_ZN4x26514saoCuStatsBO_cEPKsPKtliiPiS4_
libx265.so.200:_ZN4x26514saoCuStatsE0_cEPKsPKtliiPiS4_
libx265.so.200:_ZN4x26514saoCuStatsE1_cEPKsPKtlPaiiPiS5_
libx265.so.200:_ZN4x26514saoCuStatsE2_cEPKsPKtlPaS4_iiPiS5_
libx265.so.200:_ZN4x26514saoCuStatsE3_cEPKsPKtlPaiiPiS5_
libx265.so.200:_ZN4x26514updateChecksumEPKtRjjjlij
libx265.so.200:_ZN4x26514updateMD5PlaneERNS_10MD5ContextEPKtjjl
libx265.so.200:_ZN4x26514x265_qScale2qpEd
libx265.so.200:_ZN4x26514x265_qp2qScaleEd
libx265.so.200:_ZN4x26515MotionReference11applyWeightEjjjj
libx265.so.200:_ZN4x26515MotionReference4initEPNS_6PicYuvEPNS_11WeightParamERK10x265_param
libx265.so.200:_ZN4x26515MotionReferenceC1Ev
libx265.so.200:_ZN4x26515MotionReferenceC2Ev
libx265.so.200:_ZN4x26515MotionReferenceD1Ev
libx265.so.200:_ZN4x26515MotionReferenceD2Ev
libx265.so.200:_ZN4x26515ScalerHCrFilter7processEii
libx265.so.200:_ZN4x26515ScalerVCrFilter7processEii
libx265.so.200:_ZN4x26515extendPicBorderEPtliiii
libx265.so.200:_ZN4x26515parseLambdaFileEP10x265_param
libx265.so.200:_ZN4x26515x265_slurp_fileEPKc
libx265.so.200:_ZN4x26516ScalerHLumFilter7processEii
libx265.so.200:_ZN4x26516ScalerVLumFilter7processEii
libx265.so.200:_ZN4x26516setupCPrimitivesERNS_17EncoderPrimitivesE
libx265.so.200:_ZN4x26516x265_copy_paramsEP10x265_paramS1_
libx265.so.200:_ZN4x26516x265_report_simdEP10x265_param
libx265.so.200:_ZN4x26517CostEstimateGroup10singleCostEiiib
libx265.so.200:_ZN4x26517CostEstimateGroup11finishBatchEv
libx265.so.200:_ZN4x26517CostEstimateGroup12processTasksEi
libx265.so.200:_ZN4x26517CostEstimateGroup14estimateCUCostERNS_12LookaheadTLDEiiiiiPbbib
libx265.so.200:_ZN4x26517CostEstimateGroup17estimateFrameCostERNS_12LookaheadTLDEiiib
libx265.so.200:_ZN4x26517CostEstimateGroup3addEiii
libx265.so.200:_ZN4x26517HFilterScaler8Bit9doScalingEPsiPKhPKsPKii
libx265.so.200:_ZN4x26517PreLookaheadGroup12processTasksEi
libx265.so.200:_ZN4x26517VFilterScaler8Bit10yuv2PlaneXEPKsiPS2_Phi
libx265.so.200:_ZN4x26517x265_check_paramsEP10x265_param
libx265.so.200:_ZN4x26517x265_param2stringEP10x265_paramii
libx265.so.200:_ZN4x26517x265_print_paramsEP10x265_param
libx265.so.200:_ZN4x26518HFilterScaler10Bit9doScalingEPsiPKhPKsPKii
libx265.so.200:_ZN4x26518VFilterScaler10Bit10yuv2PlaneXEPKsiPS2_Phi
libx265.so.200:_ZN4x26519ScalerFilterManager11getLocalPosEii
libx265.so.200:_ZN4x26519ScalerFilterManager15initScalerSliceEv
libx265.so.200:_ZN4x26519ScalerFilterManager16getMinBufferSizeEPiS1_
libx265.so.200:_ZN4x26519ScalerFilterManager4initEiPNS_9VideoDescES2_
libx265.so.200:_ZN4x26519ScalerFilterManager9scale_picEPPvS2_PiS3_
libx265.so.200:_ZN4x26519ScalerFilterManagerC1Ev
libx265.so.200:_ZN4x26519ScalerFilterManagerC2Ev
libx265.so.200:_ZN4x26519SyntaxElementWriter9writeUvlcEj
libx265.so.200:_ZN4x26519getParamAspectRatioEP10x265_paramRiS2_
libx265.so.200:_ZN4x26519setParamAspectRatioEP10x265_paramii
libx265.so.200:_ZN4x26520PicQPAdaptationLayer6createEjjjjjj
libx265.so.200:_ZN4x26520setupAliasPrimitivesERNS_17EncoderPrimitivesE
libx265.so.200:_ZN4x26520setupDCTPrimitives_cERNS_17EncoderPrimitivesE
libx265.so.200:_ZN4x26520setupSaoPrimitives_cERNS_17EncoderPrimitivesE
libx265.so.200:_ZN4x26521interp_8tap_hv_pp_cpuILi0EEEvPKtlPtlii
libx265.so.200:_ZN4x26521interp_8tap_hv_pp_cpuILi10EEEvPKtlPtlii
libx265.so.200:_ZN4x26521interp_8tap_hv_pp_cpuILi11EEEvPKtlPtlii
libx265.so.200:_ZN4x26521interp_8tap_hv_pp_cpuILi12EEEvPKtlPtlii
libx265.so.200:_ZN4x26521interp_8tap_hv_pp_cpuILi13EEEvPKtlPtlii
libx265.so.200:_ZN4x26521interp_8tap_hv_pp_cpuILi14EEEvPKtlPtlii
libx265.so.200:_ZN4x26521interp_8tap_hv_pp_cpuILi15EEEvPKtlPtlii
libx265.so.200:_ZN4x26521interp_8tap_hv_pp_cpuILi16EEEvPKtlPtlii
libx265.so.200:_ZN4x26521interp_8tap_hv_pp_cpuILi17EEEvPKtlPtlii
libx265.so.200:_ZN4x26521interp_8tap_hv_pp_cpuILi18EEEvPKtlPtlii
libx265.so.200:_ZN4x26521interp_8tap_hv_pp_cpuILi19EEEvPKtlPtlii
libx265.so.200:_ZN4x26521interp_8tap_hv_pp_cpuILi1EEEvPKtlPtlii
libx265.so.200:_ZN4x26521interp_8tap_hv_pp_cpuILi20EEEvPKtlPtlii
libx265.so.200:_ZN4x26521interp_8tap_hv_pp_cpuILi21EEEvPKtlPtlii
libx265.so.200:_ZN4x26521interp_8tap_hv_pp_cpuILi22EEEvPKtlPtlii
libx265.so.200:_ZN4x26521interp_8tap_hv_pp_cpuILi23EEEvPKtlPtlii
libx265.so.200:_ZN4x26521interp_8tap_hv_pp_cpuILi24EEEvPKtlPtlii
libx265.so.200:_ZN4x26521interp_8tap_hv_pp_cpuILi2EEEvPKtlPtlii
libx265.so.200:_ZN4x26521interp_8tap_hv_pp_cpuILi3EEEvPKtlPtlii
libx265.so.200:_ZN4x26521interp_8tap_hv_pp_cpuILi4EEEvPKtlPtlii
libx265.so.200:_ZN4x26521interp_8tap_hv_pp_cpuILi5EEEvPKtlPtlii
libx265.so.200:_ZN4x26521interp_8tap_hv_pp_cpuILi6EEEvPKtlPtlii
libx265.so.200:_ZN4x26521interp_8tap_hv_pp_cpuILi7EEEvPKtlPtlii
libx265.so.200:_ZN4x26521interp_8tap_hv_pp_cpuILi8EEEvPKtlPtlii
libx265.so.200:_ZN4x26521interp_8tap_hv_pp_cpuILi9EEEvPKtlPtlii
libx265.so.200:_ZN4x26521x265_picturePlaneSizeEiiii
libx265.so.200:_ZN4x26521x265_setup_primitivesEP10x265_param
libx265.so.200:_ZN4x26522setupIntraPrimitives_cERNS_17EncoderPrimitivesE
libx265.so.200:_ZN4x26522setupIntrinsicDCT_sse3ERNS_17EncoderPrimitivesE
libx265.so.200:_ZN4x26522setupPixelPrimitives_cERNS_17EncoderPrimitivesE
libx265.so.200:_ZN4x26523setupAssemblyPrimitivesERNS_17EncoderPrimitivesEi
libx265.so.200:_ZN4x26523setupFilterPrimitives_cERNS_17EncoderPrimitivesE
libx265.so.200:_ZN4x26523setupIntrinsicDCT_sse41ERNS_17EncoderPrimitivesE
libx265.so.200:_ZN4x26523setupIntrinsicDCT_ssse3ERNS_17EncoderPrimitivesE
libx265.so.200:_ZN4x26524setupLowPassPrimitives_cERNS_17EncoderPrimitivesE
libx265.so.200:_ZN4x26525setupInstrinsicPrimitivesERNS_17EncoderPrimitivesEi
libx265.so.200:_ZN4x26526enableLowpassDCTPrimitivesERNS_17EncoderPrimitivesE
libx265.so.200:_ZN4x26527setupLoopFilterPrimitives_cERNS_17EncoderPrimitivesE
libx265.so.200:_ZN4x26528setupSeaIntegralPrimitives_cERNS_17EncoderPrimitivesE
libx265.so.200:_ZN4x26530x265_param_apply_fastfirstpassEP10x265_param
libx265.so.200:_ZN4x2653DPB10computeRPSEibPNS_3RPSEj
libx265.so.200:_ZN4x2653DPB13prepareEncodeEPNS_5FrameE
libx265.so.200:_ZN4x2653DPB14getNalUnitTypeEib
libx265.so.200:_ZN4x2653DPB19recycleUnreferencedEv
libx265.so.200:_ZN4x2653DPB22decodingRefreshMarkingEi11NalUnitType
libx265.so.200:_ZN4x2653DPB24applyReferencePictureSetEPNS_3RPSEi
libx265.so.200:_ZN4x2653DPBD1Ev
libx265.so.200:_ZN4x2653DPBD2Ev
libx265.so.200:_ZN4x2653RPS12sortDeltaPOCEv
libx265.so.200:_ZN4x2653SAO10resetStatsEv
libx265.so.200:_ZN4x2653SAO10startSliceEPNS_5FrameERNS_7EntropyE
libx265.so.200:_ZN4x2653SAO12rdoSaoUnitCuEPNS_8SAOParamEiii
libx265.so.200:_ZN4x2653SAO13estIterOffsetEiliiRiS1_Rl
libx265.so.200:_ZN4x2653SAO15calcSaoStatsCTUEii
libx265.so.200:_ZN4x2653SAO16rdoSaoUnitRowEndEPKNS_8SAOParamEi
libx265.so.200:_ZN4x2653SAO17applyPixelOffsetsEiii
libx265.so.200:_ZN4x2653SAO18createFromRootNodeEPS0_
libx265.so.200:_ZN4x2653SAO19generateLumaOffsetsEPNS_11SaoCtuParamEii
libx265.so.200:_ZN4x2653SAO21generateChromaOffsetsEPPNS_11SaoCtuParamEii
libx265.so.200:_ZN4x2653SAO21saoStatsInitialOffsetEii
libx265.so.200:_ZN4x2653SAO25calcSaoStatsCu_BeforeDblkEPNS_5FrameEii
libx265.so.200:_ZN4x2653SAO25saoLumaComponentParamDistEPNS_8SAOParamEiRlPlS3_
libx265.so.200:_ZN4x2653SAO27saoChromaComponentParamDistEPNS_8SAOParamEiRlPlS3_
libx265.so.200:_ZN4x2653SAO6createEP10x265_parami
libx265.so.200:_ZN4x2653SAO7destroyEi
libx265.so.200:_ZN4x2653SAOC1Ev
libx265.so.200:_ZN4x2653SAOC2Ev
libx265.so.200:_ZN4x2653SEI12base64DecodeEPci
libx265.so.200:_ZN4x2653SEI14writeByteAlignEv
libx265.so.200:_ZN4x2653SEI16writeSEImessagesERNS_9BitstreamERKNS_3SPSE11NalUnitTypeRNS_7NALListEi
libx265.so.200:_ZN4x2653SEI7setSizeEj
libx265.so.200:_ZN4x2653Yuv11copyFromYuvERKS0_
libx265.so.200:_ZN4x2653Yuv13copyPUFromYuvERKS0_jib
libx265.so.200:_ZN4x2653Yuv14copyFromPicYuvERKNS_6PicYuvEjj
libx265.so.200:_ZN4x2653Yuv6addAvgERKNS_8ShortYuvES3_jjjbb
libx265.so.200:_ZN4x2653Yuv6createEji
libx265.so.200:_ZN4x2653Yuv7addClipERKS0_RKNS_8ShortYuvEji
libx265.so.200:_ZN4x2653Yuv7destroyEv
libx265.so.200:_ZN4x2653YuvC1Ev
libx265.so.200:_ZN4x2653YuvC2Ev
libx265.so.200:_ZN4x2655Frame15allocEncodeDataEP10x265_paramRKNS_3SPSE
libx265.so.200:_ZN4x2655Frame6createEP10x265_paramPf
libx265.so.200:_ZN4x2655Frame6reinitERKNS_3SPSE
libx265.so.200:_ZN4x2655Frame7destroyEv
libx265.so.200:_ZN4x2655FrameC1Ev
libx265.so.200:_ZN4x2655FrameC2Ev
libx265.so.200:_ZN4x2655Quant11setChromaQPEiNS_8TextTypeEi
libx265.so.200:_ZN4x2655Quant12getSigCtxIncEjjjjbj
libx265.so.200:_ZN4x2655Quant12transformNxNERKNS_6CUDataEPKtjPKsjPsjNS_8TextTypeEjb
libx265.so.200:_ZN4x2655Quant13setQPforQuantERKNS_6CUDataEi
libx265.so.200:_ZN4x2655Quant14ssimDistortionERKNS_6CUDataEPKtjS5_ljNS_8TextTypeEj
libx265.so.200:_ZN4x2655Quant15invtransformNxNERKNS_6CUDataEPsjPKsjNS_8TextTypeEbbj
libx265.so.200:_ZN4x2655Quant16signBitHidingHDQEPsPijRKNS_25TUEntropyCodingParametersEj
libx265.so.200:_ZN4x2655Quant19allocNoiseReductionERK10x265_param
libx265.so.200:_ZN4x2655Quant4initEdRKNS_11ScalingListERNS_7EntropyE
libx265.so.200:_ZN4x2655Quant8rdoQuantILj2EEEjRKNS_6CUDataEPsNS_8TextTypeEjb
libx265.so.200:_ZN4x2655Quant8rdoQuantILj3EEEjRKNS_6CUDataEPsNS_8TextTypeEjb
libx265.so.200:_ZN4x2655Quant8rdoQuantILj4EEEjRKNS_6CUDataEPsNS_8TextTypeEjb
libx265.so.200:_ZN4x2655Quant8rdoQuantILj5EEEjRKNS_6CUDataEPsNS_8TextTypeEjb
libx265.so.200:_ZN4x2655QuantC1Ev
libx265.so.200:_ZN4x2655QuantC2Ev
libx265.so.200:_ZN4x2655QuantD1Ev
libx265.so.200:_ZN4x2655QuantD2Ev
libx265.so.200:_ZN4x2655Slice13setRefPicListERNS_7PicListE
libx265.so.200:_ZN4x2655Slice14disableWeightsEv
libx265.so.200:_ZN4x2656CUData10initializeERKNS_13CUDataMemPoolEjRK10x265_parami
libx265.so.200:_ZN4x2656CUData11copyFromPicERKS0_RKNS_6CUGeomEib
libx265.so.200:_ZN4x2656CUData11setPURefIdxEiaii
libx265.so.200:_ZN4x2656CUData11setQPSubCUsEajj
libx265.so.200:_ZN4x2656CUData12calcCTUGeomsEjjjjPNS_6CUGeomE
libx265.so.200:_ZN4x2656CUData12copyPartFromERKS0_RKNS_6CUGeomEj
libx265.so.200:_ZN4x2656CUData12setEmptyPartERKNS_6CUGeomEj
libx265.so.200:_ZN4x2656CUData13setPUInterDirEhjj
libx265.so.200:_ZN4x2656CUData14initLosslessCUERKS0_RKNS_6CUGeomE
libx265.so.200:_ZN4x2656CUData7initCTUERKNS_5FrameEjijjj
libx265.so.200:_ZN4x2656CUData7setPUMvEiRKNS_2MVEii
libx265.so.200:_ZN4x2656CUData9initSubCUERKS0_RKNS_6CUGeomEi
libx265.so.200:_ZN4x2656CUDataC1Ev
libx265.so.200:_ZN4x2656CUDataC2Ev
libx265.so.200:_ZN4x2656Lowres4initEPNS_6PicYuvEi
libx265.so.200:_ZN4x2656Lowres6createEP10x265_paramPNS_6PicYuvEj
libx265.so.200:_ZN4x2656Lowres7destroyEv
libx265.so.200:_ZN4x2656PicYuv13createOffsetsERKNS_3SPSE
libx265.so.200:_ZN4x2656PicYuv13getLumaBufLenEjjj
libx265.so.200:_ZN4x2656PicYuv15copyFromPictureERK12x265_pictureRK10x265_paramii
libx265.so.200:_ZN4x2656PicYuv6createEP10x265_parambPt
libx265.so.200:_ZN4x2656PicYuv7destroyEv
libx265.so.200:_ZN4x2656PicYuvC1Ev
libx265.so.200:_ZN4x2656PicYuvC2Ev
libx265.so.200:_ZN4x2656Search10checkIntraERNS_4ModeERKNS_6CUGeomENS_8PartSizeE
libx265.so.200:_ZN4x2656Search10getBlkBitsENS_8PartSizeEbijPj
libx265.so.200:_ZN4x2656Search10initSearchERK10x265_paramRNS_11ScalingListE
libx265.so.200:_ZN4x2656Search10processPMEERNS0_3PMEERS0_
libx265.so.200:_ZN4x2656Search11getLowresMVERKNS_6CUDataERKNS_14PredictionUnitEii
libx265.so.200:_ZN4x2656Search14estIntraPredQTERNS_4ModeERKNS_6CUGeomEPKj
libx265.so.200:_ZN4x2656Search14updateCandListEjmiPjPm
libx265.so.200:_ZN4x2656Search15codeIntraLumaQTERNS_4ModeERKNS_6CUGeomEjjbRNS0_4CostEPKj
libx265.so.200:_ZN4x2656Search15mergeEstimationERNS_6CUDataERKNS_6CUGeomERKNS_14PredictionUnitEiRNS0_9MergeDataE
libx265.so.200:_ZN4x2656Search15offsetSubTUCBFsERNS_6CUDataENS_8TextTypeEjj
libx265.so.200:_ZN4x2656Search15predInterSearchERNS_4ModeERKNS_6CUGeomEbPj
libx265.so.200:_ZN4x2656Search15setLambdaFromQPERKNS_6CUDataEii
libx265.so.200:_ZN4x2656Search17checkIntraInInterERNS_4ModeERKNS_6CUGeomE
libx265.so.200:_ZN4x2656Search17codeCoeffQTChromaERKNS_6CUDataEjjNS_8TextTypeE
libx265.so.200:_ZN4x2656Search17codeIntraChromaQtERNS_4ModeERKNS_6CUGeomEjjRNS0_4CostE
libx265.so.200:_ZN4x2656Search18codeIntraLumaTSkipERNS_4ModeERKNS_6CUGeomEjjRNS0_4CostE
libx265.so.200:_ZN4x2656Search18encodeIntraInInterERNS_4ModeERKNS_6CUGeomE
libx265.so.200:_ZN4x2656Search18estimateResidualQTERNS_4ModeERKNS_6CUGeomEjjRNS_8ShortYuvERNS0_4CostEPKji
libx265.so.200:_ZN4x2656Search18invalidateContextsEi
libx265.so.200:_ZN4x2656Search18saveResidualQTDataERNS_6CUDataERNS_8ShortYuvEjj
libx265.so.200:_ZN4x2656Search19estimateNullCbfCostEmjjNS_8TextTypeE
libx265.so.200:_ZN4x2656Search20checkDQPForSplitPredERNS_4ModeERKNS_6CUGeomE
libx265.so.200:_ZN4x2656Search20codeInterSubdivCbfQTERNS_6CUDataEjjPKj
libx265.so.200:_ZN4x2656Search20codeIntraChromaTSkipERNS_4ModeERKNS_6CUGeomEjjjRNS0_4CostE
libx265.so.200:_ZN4x2656Search20estIntraPredChromaQTERNS_4ModeERKNS_6CUGeomE
libx265.so.200:_ZN4x2656Search20extractIntraResultQTERNS_6CUDataERNS_3YuvEjj
libx265.so.200:_ZN4x2656Search21codeSubdivCbfQTChromaERKNS_6CUDataEjj
libx265.so.200:_ZN4x2656Search21residualQTIntraChromaERNS_4ModeERKNS_6CUGeomEjj
libx265.so.200:_ZN4x2656Search22getBestIntraModeChromaERNS_4ModeERKNS_6CUGeomE
libx265.so.200:_ZN4x2656Search22singleMotionEstimationERS0_RNS_4ModeERKNS_14PredictionUnitEiii
libx265.so.200:_ZN4x2656Search24encodeResAndCalcRdSkipCUERNS_4ModeE
libx265.so.200:_ZN4x2656Search25encodeResAndCalcRdInterCUERNS_4ModeERKNS_6CUGeomE
libx265.so.200:_ZN4x2656Search26extractIntraResultChromaQTERNS_6CUDataERNS_3YuvEjj
libx265.so.200:_ZN4x2656Search27residualTransformQuantInterERNS_4ModeERKNS_6CUGeomEjjPKj
libx265.so.200:_ZN4x2656Search27residualTransformQuantIntraERNS_4ModeERKNS_6CUGeomEjjPKj
libx265.so.200:_ZN4x2656Search3PME12processTasksEi
libx265.so.200:_ZN4x2656Search7splitTUERNS_4ModeERKNS_6CUGeomEjjRNS_8ShortYuvERNS0_4CostEPKji
libx265.so.200:_ZN4x2656Search8checkDQPERNS_4ModeERKNS_6CUGeomE
libx265.so.200:_ZN4x2656Search8searchMVERNS_4ModeEiiRNS_2MVEPS3_iS5_
libx265.so.200:_ZN4x2656Search9selectMVPERKNS_6CUDataERKNS_14PredictionUnitEPKNS_2MVEii
libx265.so.200:_ZN4x2656Search9updateMVPENS_2MVERKS1_RjS4_S3_
libx265.so.200:_ZN4x2656SearchC1Ev
libx265.so.200:_ZN4x2656SearchC2Ev
libx265.so.200:_ZN4x2656SearchD1Ev
libx265.so.200:_ZN4x2656SearchD2Ev
libx265.so.200:_ZN4x2656Thread4stopEv
libx265.so.200:_ZN4x2656Thread5startEv
libx265.so.200:_ZN4x2656ThreadC1Ev
libx265.so.200:_ZN4x2656ThreadC2Ev
libx265.so.200:_ZN4x2656ThreadD0Ev
libx265.so.200:_ZN4x2656ThreadD1Ev
libx265.so.200:_ZN4x2656ThreadD2Ev
libx265.so.200:_ZN4x2657BitCost13CalculateLogsEv
libx265.so.200:_ZN4x2657BitCost5setQPEj
libx265.so.200:_ZN4x2657BitCost7destroyEv
libx265.so.200:_ZN4x2657Deblock10deblockCTUEPKNS_6CUDataERKNS_6CUGeomEi
libx265.so.200:_ZN4x2657Deblock14edgeFilterLumaEPKNS_6CUDataEjjiiPKh
libx265.so.200:_ZN4x2657Deblock15setEdgefilterPUEPKNS_6CUDataEjiPhj
libx265.so.200:_ZN4x2657Deblock15setEdgefilterTUEPKNS_6CUDataEjjiPh
libx265.so.200:_ZN4x2657Deblock16edgeFilterChromaEPKNS_6CUDataEjjiiPKh
libx265.so.200:_ZN4x2657Deblock19getBoundaryStrengthEPKNS_6CUDataEijPKh
libx265.so.200:_ZN4x2657Deblock21setEdgefilterMultipleEjiihPhj
libx265.so.200:_ZN4x2657Deblock9deblockCUEPKNS_6CUDataERKNS_6CUGeomEiPh
libx265.so.200:_ZN4x2657Encoder10computeSSDEPtS1_ljjP10x265_param
libx265.so.200:_ZN4x2657Encoder10fetchStatsEP10x265_statsm
libx265.so.200:_ZN4x2657Encoder10getCUIndexEPNS_10cuLocationEPjii
libx265.so.200:_ZN4x2657Encoder10getPuShapeEPNS_13puOrientationEii
libx265.so.200:_ZN4x2657Encoder10initRefIdxEv
libx265.so.200:_ZN4x2657Encoder11ComputePSNREP12x265_pictureS2_P10x265_param
libx265.so.200:_ZN4x2657Encoder11copyCtuInfoEPP15x265_ctu_info_ti
libx265.so.200:_ZN4x2657Encoder11copyPictureEP12x265_picturePKS1_
libx265.so.200:_ZN4x2657Encoder11statsStringERNS_8EncStatsEPc
libx265.so.200:_ZN4x2657Encoder12printSummaryEv
libx265.so.200:_ZN4x2657Encoder12updateRefIdxEv
libx265.so.200:_ZN4x2657Encoder13analyseRefIdxEPi
libx265.so.200:_ZN4x2657Encoder13configureZoneEP10x265_paramS2_
libx265.so.200:_ZN4x2657Encoder13findSceneCutsEP12x265_pictureRbddS3_S3_
libx265.so.200:_ZN4x2657Encoder13updateVbvPlanEPNS_11RateControlE
libx265.so.200:_ZN4x2657Encoder14getEndNalUnitsERNS_7NALListERNS_9BitstreamE
libx265.so.200:_ZN4x2657Encoder14normalizeRangeEiiidd
libx265.so.200:_ZN4x2657Encoder15getRefFrameListEPPNS_6PicYuvES3_iiPiS4_
libx265.so.200:_ZN4x2657Encoder15isReconfigureRcEP10x265_paramS2_
libx265.so.200:_ZN4x2657Encoder15readUserSeiFileER16x265_sei_payloadi
libx265.so.200:_ZN4x2657Encoder15setAnalysisDataEP18x265_analysis_dataij
libx265.so.200:_ZN4x2657Encoder16finishFrameStatsEPNS_5FrameEPNS_12FrameEncoderEP16x265_frame_statsi
libx265.so.200:_ZN4x2657Encoder16getStreamHeadersERNS_7NALListERNS_7EntropyERNS_9BitstreamE
libx265.so.200:_ZN4x2657Encoder16readAnalysisFileEP18x265_analysis_dataiPK12x265_picturei
libx265.so.200:_ZN4x2657Encoder16readAnalysisFileEP18x265_analysis_dataiPK12x265_pictureiNS_10cuLocationE
libx265.so.200:_ZN4x2657Encoder16readAnalysisFileEP18x265_analysis_dataii
libx265.so.200:_ZN4x2657Encoder16reconfigureParamEP10x265_paramS2_
libx265.so.200:_ZN4x2657Encoder17computeHistogramsEP12x265_picture
libx265.so.200:_ZN4x2657Encoder17writeAnalysisFileEP18x265_analysis_dataRNS_9FrameDataE
libx265.so.200:_ZN4x2657Encoder18computeSPSRPSIndexEv
libx265.so.200:_ZN4x2657Encoder18copyDistortionDataEP18x265_analysis_dataRNS_9FrameDataE
libx265.so.200:_ZN4x2657Encoder19calcRefreshIntervalEPNS_5FrameE
libx265.so.200:_ZN4x2657Encoder19computeHistogramSADEPdS1_i
libx265.so.200:_ZN4x2657Encoder19copyUserSEIMessagesEPNS_5FrameEPK12x265_picture
libx265.so.200:_ZN4x2657Encoder20validateAnalysisDataEP22x265_analysis_validatei
libx265.so.200:_ZN4x2657Encoder22printReconfigureParamsEv
libx265.so.200:_ZN4x2657Encoder23computeDistortionOffsetEP18x265_analysis_data
libx265.so.200:_ZN4x2657Encoder23writeAnalysisFileRefineEP18x265_analysis_dataRNS_9FrameDataE
libx265.so.200:_ZN4x2657Encoder25setAnalysisDataAfterZScanEP18x265_analysis_dataPNS_5FrameE
libx265.so.200:_ZN4x2657Encoder26configureDolbyVisionParamsEP10x265_param
libx265.so.200:_ZN4x2657Encoder27copySlicetypePocAndSceneCutEPiS1_S1_
libx265.so.200:_ZN4x2657Encoder30configureVideoSignalTypePresetEP10x265_param
libx265.so.200:_ZN4x2657Encoder6createEv
libx265.so.200:_ZN4x2657Encoder6encodeEPK12x265_picturePS1_
libx265.so.200:_ZN4x2657Encoder7destroyEv
libx265.so.200:_ZN4x2657Encoder7initPPSEPNS_3PPSE
libx265.so.200:_ZN4x2657Encoder7initSPSEPNS_3SPSE
libx265.so.200:_ZN4x2657Encoder7initVPSEPNS_3VPSE
libx265.so.200:_ZN4x2657Encoder8stopJobsEv
libx265.so.200:_ZN4x2657Encoder9configureEP10x265_param
libx265.so.200:_ZN4x2657EncoderC1Ev
libx265.so.200:_ZN4x2657EncoderC2Ev
libx265.so.200:_ZN4x2657Entropy10codePUWiseERKNS_6CUDataEj
libx265.so.200:_ZN4x2657Entropy11codeDeltaQPERKNS_6CUDataEj
libx265.so.200:_ZN4x2657Entropy11encodeBinEPEj
libx265.so.200:_ZN4x2657Entropy12codeCoeffNxNERKNS_6CUDataEPKsjjNS_8TextTypeE
libx265.so.200:_ZN4x2657Entropy12codeInterDirERKNS_6CUDataEj
libx265.so.200:_ZN4x2657Entropy12codePartSizeERKNS_6CUDataEjj
libx265.so.200:_ZN4x2657Entropy12codePredInfoERKNS_6CUDataEj
libx265.so.200:_ZN4x2657Entropy12encodeBinTrmEj
libx265.so.200:_ZN4x2657Entropy12encodeBinsEPEji
libx265.so.200:_ZN4x2657Entropy12resetEntropyERKNS_5SliceE
libx265.so.200:_ZN4x2657Entropy13codeRefFrmIdxERKNS_6CUDataEji
libx265.so.200:_ZN4x2657Entropy13codeSaoOffsetERKNS_11SaoCtuParamEi
libx265.so.200:_ZN4x2657Entropy14codeMergeIndexERKNS_6CUDataEj
libx265.so.200:_ZN4x2657Entropy14codeSaoMaxUvlcEjj
libx265.so.200:_ZN4x2657Entropy15codeProfileTierERKNS_16ProfileTierLevelEi
libx265.so.200:_ZN4x2657Entropy15codeQtCbfChromaERKNS_6CUDataEjNS_8TextTypeEjb
libx265.so.200:_ZN4x2657Entropy15codeRefFrmIdxPUERKNS_6CUDataEji
libx265.so.200:_ZN4x2657Entropy15codeSaoOffsetBOEPiii
libx265.so.200:_ZN4x2657Entropy15codeSaoOffsetEOEPiii
libx265.so.200:_ZN4x2657Entropy15codeScalingListERKNS_11ScalingListE
libx265.so.200:_ZN4x2657Entropy15codeScalingListERKNS_11ScalingListEjj
libx265.so.200:_ZN4x2657Entropy15codeSliceHeaderERKNS_5SliceERNS_9FrameDataEjji
libx265.so.200:_ZN4x2657Entropy15encodeTransformERKNS_6CUDataEjjjRbPKj
libx265.so.200:_ZN4x2657Entropy15writeEpExGolombEjj
libx265.so.200:_ZN4x2657Entropy16copyContextsFromERKS0_
libx265.so.200:_ZN4x2657Entropy17codeHrdParametersERKNS_7HRDInfoEi
libx265.so.200:_ZN4x2657Entropy18codeIntraDirChromaERKNS_6CUDataEjPj
libx265.so.200:_ZN4x2657Entropy19codeIntraDirLumaAngERKNS_6CUDataEjb
libx265.so.200:_ZN4x2657Entropy19codePredWeightTableERKNS_5SliceE
libx265.so.200:_ZN4x2657Entropy19encodeTransformLumaERKNS_6CUDataEjjjRbPKj
libx265.so.200:_ZN4x2657Entropy19writeUnaryMaxSymbolEjPhij
libx265.so.200:_ZN4x2657Entropy20loadIntraDirModeLumaERKS0_
libx265.so.200:_ZN4x2657Entropy22codeShortTermRefPicSetERKNS_3RPSEi
libx265.so.200:_ZN4x2657Entropy23writeCoefRemainExGolombEjj
libx265.so.200:_ZN4x2657Entropy29codeSliceHeaderWPPEntryPointsEPKjjj
libx265.so.200:_ZN4x2657Entropy5startEv
libx265.so.200:_ZN4x2657Entropy6finishEv
libx265.so.200:_ZN4x2657Entropy7codeAUDERKNS_5SliceE
libx265.so.200:_ZN4x2657Entropy7codeMvdERKNS_6CUDataEji
libx265.so.200:_ZN4x2657Entropy7codePPSERKNS_3PPSEbi
libx265.so.200:_ZN4x2657Entropy7codeSPSERKNS_3SPSERKNS_11ScalingListERKNS_16ProfileTierLevelE
libx265.so.200:_ZN4x2657Entropy7codeVPSERKNS_3VPSE
libx265.so.200:_ZN4x2657Entropy7codeVUIERKNS_3VUIEibb
libx265.so.200:_ZN4x2657Entropy8copyFromERKS0_
libx265.so.200:_ZN4x2657Entropy8encodeCUERKNS_6CUDataERKNS_6CUGeomEjjRb
libx265.so.200:_ZN4x2657Entropy8finishCUERKNS_6CUDataEjjb
libx265.so.200:_ZN4x2657Entropy8writeOutEv
libx265.so.200:_ZN4x2657Entropy9codeCoeffERKNS_6CUDataEjRbPKj
libx265.so.200:_ZN4x2657Entropy9copyStateERKS0_
libx265.so.200:_ZN4x2657Entropy9encodeBinEjRh
libx265.so.200:_ZN4x2657Entropy9encodeCTUERKNS_6CUDataERKNS_6CUGeomE
libx265.so.200:_ZN4x2657Entropy9resetBitsEv
libx265.so.200:_ZN4x2657EntropyC1Ev
libx265.so.200:_ZN4x2657EntropyC2Ev
libx265.so.200:_ZN4x2657MD5InitEPNS_10MD5ContextE
libx265.so.200:_ZN4x2657NALList12takeContentsERS0_
libx265.so.200:_ZN4x2657NALList19serializeSubstreamsEPjjPKNS_9BitstreamE
libx265.so.200:_ZN4x2657NALList9serializeE11NalUnitTypeRKNS_9BitstreamE
libx265.so.200:_ZN4x2657NALListC1Ev
libx265.so.200:_ZN4x2657NALListC2Ev
libx265.so.200:_ZN4x2657PicList11getCurFrameEv
libx265.so.200:_ZN4x2657PicList6getPOCEi
libx265.so.200:_ZN4x2657PicList6removeERNS_5FrameE
libx265.so.200:_ZN4x2657PicList7popBackEv
libx265.so.200:_ZN4x2657PicList8popFrontEv
libx265.so.200:_ZN4x2657PicList8pushBackERNS_5FrameE
libx265.so.200:_ZN4x2657PicList9pushFrontERNS_5FrameE
libx265.so.200:_ZN4x2657Predict12allocBuffersEi
libx265.so.200:_ZN4x2657Predict14initAdiPatternERKNS_6CUDataERKNS_6CUGeomEjRKNS0_14IntraNeighborsEi
libx265.so.200:_ZN4x2657Predict16predIntraLumaAngEjPtlj
libx265.so.200:_ZN4x2657Predict18initIntraNeighborsERKNS_6CUDataEjjbPNS0_14IntraNeighborsE
libx265.so.200:_ZN4x2657Predict18motionCompensationERKNS_6CUDataERKNS_14PredictionUnitERNS_3YuvEbb
libx265.so.200:_ZN4x2657Predict18predIntraChromaAngEjPtlj
libx265.so.200:_ZN4x2657Predict20fillReferenceSamplesEPKtlRKNS0_14IntraNeighborsEPt
libx265.so.200:_ZN4x2657Predict20initAdiPatternChromaERKNS_6CUDataERKNS_6CUGeomEjRKNS0_14IntraNeighborsEj
libx265.so.200:_ZN4x2657PredictC1Ev
libx265.so.200:_ZN4x2657PredictC2Ev
libx265.so.200:_ZN4x2657PredictD1Ev
libx265.so.200:_ZN4x2657PredictD2Ev
libx265.so.200:_ZN4x2658Analysis10aqQPOffsetERKNS_6CUDataERKNS_6CUGeomE
libx265.so.200:_ZN4x2658Analysis10classifyCUERKNS_6CUDataERKNS_6CUGeomERKNS_4ModeERNS0_12TrainingDataE
libx265.so.200:_ZN4x2658Analysis10normFactorEPKtjRNS_6CUDataEiNS_8TextTypeE
libx265.so.200:_ZN4x2658Analysis10qprdRefineERKNS_6CUDataERKNS_6CUGeomEii
libx265.so.200:_ZN4x2658Analysis11compressCTUERNS_6CUDataERNS_5FrameERKNS_6CUGeomERKNS_7EntropyE
libx265.so.200:_ZN4x2658Analysis11loadTUDepthENS_6CUGeomENS_6CUDataE
libx265.so.200:_ZN4x2658Analysis11tryLosslessERKNS_6CUGeomE
libx265.so.200:_ZN4x2658Analysis12processPmodeERNS0_5PMODEERS0_
libx265.so.200:_ZN4x2658Analysis13encodeResidueERKNS_6CUDataERKNS_6CUGeomE
libx265.so.200:_ZN4x2658Analysis14cuTreeQPOffsetERKNS_6CUDataERKNS_6CUGeomE
libx265.so.200:_ZN4x2658Analysis15checkBidir2Nx2NERNS_4ModeES2_RKNS_6CUGeomE
libx265.so.200:_ZN4x2658Analysis15compressIntraCUERKNS_6CUDataERKNS_6CUGeomEi
libx265.so.200:_ZN4x2658Analysis15topSkipMinDepthERKNS_6CUDataERKNS_6CUGeomE
libx265.so.200:_ZN4x2658Analysis16addSplitFlagCostERNS_4ModeEj
libx265.so.200:_ZN4x2658Analysis16checkInter_rd0_4ERNS_4ModeERKNS_6CUGeomENS_8PartSizeEPj
libx265.so.200:_ZN4x2658Analysis16checkInter_rd5_6ERNS_4ModeERKNS_6CUGeomENS_8PartSizeEPj
libx265.so.200:_ZN4x2658Analysis17complexityCheckCUERKNS_4ModeE
libx265.so.200:_ZN4x2658Analysis19calculateCUVarianceERKNS_6CUDataERKNS_6CUGeomE
libx265.so.200:_ZN4x2658Analysis19calculateNormFactorERNS_6CUDataEi
libx265.so.200:_ZN4x2658Analysis19collectPUStatisticsERKNS_6CUDataERKNS_6CUGeomE
libx265.so.200:_ZN4x2658Analysis19recursionDepthCheckERKNS_6CUDataERKNS_6CUGeomERKNS_4ModeE
libx265.so.200:_ZN4x2658Analysis20calculateQpforCuSizeERKNS_6CUDataERKNS_6CUGeomEid
libx265.so.200:_ZN4x2658Analysis20compressInterCU_distERKNS_6CUDataERKNS_6CUGeomEi
libx265.so.200:_ZN4x2658Analysis21checkMerge2Nx2N_rd0_4ERNS_4ModeES2_RKNS_6CUGeomE
libx265.so.200:_ZN4x2658Analysis21checkMerge2Nx2N_rd5_6ERNS_4ModeES2_RKNS_6CUGeomE
libx265.so.200:_ZN4x2658Analysis21compressInterCU_rd0_4ERKNS_6CUDataERKNS_6CUGeomEi
libx265.so.200:_ZN4x2658Analysis21compressInterCU_rd5_6ERKNS_6CUDataERKNS_6CUGeomEi
libx265.so.200:_ZN4x2658Analysis23findSameContentRefCountERKNS_6CUDataERKNS_6CUGeomE
libx265.so.200:_ZN4x2658Analysis5PMODE12processTasksEi
libx265.so.200:_ZN4x2658Analysis6createEPNS_15ThreadLocalDataE
libx265.so.200:_ZN4x2658Analysis7destroyEv
libx265.so.200:_ZN4x2658Analysis7trainCUERKNS_6CUDataERKNS_6CUGeomERKNS_4ModeERNS0_12TrainingDataE
libx265.so.200:_ZN4x2658Analysis8recodeCUERKNS_6CUDataERKNS_6CUGeomEii
libx265.so.200:_ZN4x2658AnalysisC1Ev
libx265.so.200:_ZN4x2658AnalysisC2Ev
libx265.so.200:_ZN4x2658EncStats5addQPEd
libx265.so.200:_ZN4x2658EncStats7addBitsEm
libx265.so.200:_ZN4x2658EncStats7addPsnrEddd
libx265.so.200:_ZN4x2658EncStats7addSsimEd
libx265.so.200:_ZN4x2658MD5FinalEPNS_10MD5ContextEPh
libx265.so.200:_ZN4x2658ShortYuv5clearEv
libx265.so.200:_ZN4x2658ShortYuv6createEji
libx265.so.200:_ZN4x2658ShortYuv7destroyEv
libx265.so.200:_ZN4x2658ShortYuv8subtractERKNS_3YuvES3_ji
libx265.so.200:_ZN4x2658ShortYuvC1Ev
libx265.so.200:_ZN4x2658ShortYuvC2Ev
libx265.so.200:_ZN4x2658sbacInitEii
libx265.so.200:_ZN4x2659Bitstream13writeAlignOneEv
libx265.so.200:_ZN4x2659Bitstream14writeAlignZeroEv
libx265.so.200:_ZN4x2659Bitstream18writeByteAlignmentEv
libx265.so.200:_ZN4x2659Bitstream5writeEjj
libx265.so.200:_ZN4x2659Bitstream9push_backEh
libx265.so.200:_ZN4x2659Bitstream9writeByteEj
libx265.so.200:_ZN4x2659BitstreamC1Ev
libx265.so.200:_ZN4x2659BitstreamC2Ev
libx265.so.200:_ZN4x2659FrameData6createERK10x265_paramRKNS_3SPSEi
libx265.so.200:_ZN4x2659FrameData6reinitERKNS_3SPSE
libx265.so.200:_ZN4x2659FrameData7destroyEv
libx265.so.200:_ZN4x2659FrameDataC1Ev
libx265.so.200:_ZN4x2659FrameDataC2Ev
libx265.so.200:_ZN4x2659Lookahead10addPictureERNS_5FrameE
libx265.so.200:_ZN4x2659Lookahead10addPictureERNS_5FrameEi
libx265.so.200:_ZN4x2659Lookahead12cuTreeFinishEPNS_6LowresEdi
libx265.so.200:_ZN4x2659Lookahead12vbvFrameCostEPPNS_6LowresEiii
libx265.so.200:_ZN4x2659Lookahead12vbvLookaheadEPPNS_6LowresEii
libx265.so.200:_ZN4x2659Lookahead13slicetypePathEPPNS_6LowresEiPA251_c
libx265.so.200:_ZN4x2659Lookahead15slicetypeDecideEv
libx265.so.200:_ZN4x2659Lookahead16scenecutInternalEPPNS_6LowresEiib
libx265.so.200:_ZN4x2659Lookahead16slicetypeAnalyseEPPNS_6LowresEb
libx265.so.200:_ZN4x2659Lookahead17getDecidedPictureEv
libx265.so.200:_ZN4x2659Lookahead17setLookaheadQueueEv
libx265.so.200:_ZN4x2659Lookahead17slicetypePathCostEPPNS_6LowresEPcl
libx265.so.200:_ZN4x2659Lookahead19checkLookaheadQueueERi
libx265.so.200:_ZN4x2659Lookahead19estimateCUPropagateEPPNS_6LowresEdiiii
libx265.so.200:_ZN4x2659Lookahead20frameCostRecalculateEPPNS_6LowresEiii
libx265.so.200:_ZN4x2659Lookahead21computeCUTreeQpOffsetEPNS_6LowresEdi
libx265.so.200:_ZN4x2659Lookahead23getEstimatedPictureCostEPNS_5FrameE
libx265.so.200:_ZN4x2659Lookahead28calcMotionAdaptiveQuantFrameEPPNS_6LowresEiii
libx265.so.200:_ZN4x2659Lookahead5flushEv
libx265.so.200:_ZN4x2659Lookahead6createEv
libx265.so.200:_ZN4x2659Lookahead6cuTreeEPPNS_6LowresEib
libx265.so.200:_ZN4x2659Lookahead7destroyEv
libx265.so.200:_ZN4x2659Lookahead7findJobEi
libx265.so.200:_ZN4x2659Lookahead8aqMotionEPPNS_6LowresEb
libx265.so.200:_ZN4x2659Lookahead8scenecutEPPNS_6LowresEiibi
libx265.so.200:_ZN4x2659Lookahead8stopJobsEv
libx265.so.200:_ZN4x2659LookaheadC1EP10x265_paramPNS_10ThreadPoolE
libx265.so.200:_ZN4x2659LookaheadC2EP10x265_paramPNS_10ThreadPoolE
libx265.so.200:_ZN4x2659MD5UpdateEPNS_10MD5ContextEPhj
libx265.so.200:_ZN4x2659WaveFront10dequeueRowEi
libx265.so.200:_ZN4x2659WaveFront10enqueueRowEi
libx265.so.200:_ZN4x2659WaveFront13enableAllRowsEv
libx265.so.200:_ZN4x2659WaveFront19clearEnabledRowMaskEv
libx265.so.200:_ZN4x2659WaveFront4initEi
libx265.so.200:_ZN4x2659WaveFront7findJobEi
libx265.so.200:_ZN4x2659WaveFront9enableRowEi
libx265.so.200:_ZN4x2659WaveFrontD0Ev
libx265.so.200:_ZN4x2659WaveFrontD1Ev
libx265.so.200:_ZN4x2659WaveFrontD2Ev
libx265.so.200:_ZN4x2659crcFinishERjPh
libx265.so.200:_ZN4x2659detect512Ev
libx265.so.200:_ZN4x2659updateCRCEPKtRjjjl
libx265.so.200:_ZN4x2659x265_atofEPKcRb
libx265.so.200:_ZN4x2659x265_atoiEPKcRb
libx265.so.200:_ZN4x2659x265_freeEPv
libx265.so.200:_ZN6json114Json11parse_multiERKNSt7__cxx1112basic_stringIcSt11char_traitsIcESaIcEEERmRS6_NS_9JsonParseE
libx265.so.200:_ZN6json114Json5parseERKNSt7__cxx1112basic_stringIcSt11char_traitsIcESaIcEEERS6_NS_9JsonParseE
libx265.so.200:_ZN6json114JsonC1EDn
libx265.so.200:_ZN6json114JsonC1EONSt7__cxx1112basic_stringIcSt11char_traitsIcESaIcEEE
libx265.so.200:_ZN6json114JsonC1EOSt3mapINSt7__cxx1112basic_stringIcSt11char_traitsIcESaIcEEES0_St4lessIS7_ESaISt4pairIKS7_S0_EEE
libx265.so.200:_ZN6json114JsonC1EOSt6vectorIS0_SaIS0_EE
libx265.so.200:_ZN6json114JsonC1EPKc
libx265.so.200:_ZN6json114JsonC1ERKNSt7__cxx1112basic_stringIcSt11char_traitsIcESaIcEEE
libx265.so.200:_ZN6json114JsonC1ERKSt3mapINSt7__cxx1112basic_stringIcSt11char_traitsIcESaIcEEES0_St4lessIS7_ESaISt4pairIKS7_S0_EEE
libx265.so.200:_ZN6json114JsonC1ERKSt6vectorIS0_SaIS0_EE
libx265.so.200:_ZN6json114JsonC1Eb
libx265.so.200:_ZN6json114JsonC1Ed
libx265.so.200:_ZN6json114JsonC1Ei
libx265.so.200:_ZN6json114JsonC1Ev
libx265.so.200:_ZN6json114JsonC2EDn
libx265.so.200:_ZN6json114JsonC2EONSt7__cxx1112basic_stringIcSt11char_traitsIcESaIcEEE
libx265.so.200:_ZN6json114JsonC2EOSt3mapINSt7__cxx1112basic_stringIcSt11char_traitsIcESaIcEEES0_St4lessIS7_ESaISt4pairIKS7_S0_EEE
libx265.so.200:_ZN6json114JsonC2EOSt6vectorIS0_SaIS0_EE
libx265.so.200:_ZN6json114JsonC2EPKc
libx265.so.200:_ZN6json114JsonC2ERKNSt7__cxx1112basic_stringIcSt11char_traitsIcESaIcEEE
libx265.so.200:_ZN6json114JsonC2ERKSt3mapINSt7__cxx1112basic_stringIcSt11char_traitsIcESaIcEEES0_St4lessIS7_ESaISt4pairIKS7_S0_EEE
libx265.so.200:_ZN6json114JsonC2ERKSt6vectorIS0_SaIS0_EE
libx265.so.200:_ZN6json114JsonC2Eb
libx265.so.200:_ZN6json114JsonC2Ed
libx265.so.200:_ZN6json114JsonC2Ei
libx265.so.200:_ZN6json114JsonC2Ev
libx265.so.200:_ZN9__gnu_cxx15__concat_size_tEPcmm
libx265.so.200:_ZN9__gnu_cxx15__snprintf_liteEPcmPKcP13__va_list_tag
libx265.so.200:_ZN9__gnu_cxx20recursive_init_errorC1Ev
libx265.so.200:_ZN9__gnu_cxx20recursive_init_errorC2Ev
libx265.so.200:_ZN9__gnu_cxx20recursive_init_errorD0Ev
libx265.so.200:_ZN9__gnu_cxx20recursive_init_errorD1Ev
libx265.so.200:_ZN9__gnu_cxx20recursive_init_errorD2Ev
libx265.so.200:_ZN9__gnu_cxx26__throw_insufficient_spaceEPKcS1_
libx265.so.200:_ZN9__gnu_cxx27__verbose_terminate_handlerEv
libx265.so.200:_ZN9__gnu_cxx9__freeresEv
libx265.so.200:_ZNK10__cxxabiv117__class_type_info10__do_catchEPKSt9type_infoPPvj
libx265.so.200:_ZNK10__cxxabiv117__class_type_info11__do_upcastEPKS0_PKvRNS0_15__upcast_resultE
libx265.so.200:_ZNK10__cxxabiv117__class_type_info11__do_upcastEPKS0_PPv
libx265.so.200:_ZNK10__cxxabiv117__class_type_info12__do_dyncastElNS0_10__sub_kindEPKS0_PKvS3_S5_RNS0_16__dyncast_resultE
libx265.so.200:_ZNK10__cxxabiv117__class_type_info20__do_find_public_srcElPKvPKS0_S2_
libx265.so.200:_ZNK10__cxxabiv120__si_class_type_info11__do_upcastEPKNS_17__class_type_infoEPKvRNS1_15__upcast_resultE
libx265.so.200:_ZNK10__cxxabiv120__si_class_type_info12__do_dyncastElNS_17__class_type_info10__sub_kindEPKS1_PKvS4_S6_RNS1_16__dyncast_resultE
libx265.so.200:_ZNK10__cxxabiv120__si_class_type_info20__do_find_public_srcElPKvPKNS_17__class_type_infoES2_
libx265.so.200:_ZNK10__cxxabiv121__vmi_class_type_info11__do_upcastEPKNS_17__class_type_infoEPKvRNS1_15__upcast_resultE
libx265.so.200:_ZNK10__cxxabiv121__vmi_class_type_info12__do_dyncastElNS_17__class_type_info10__sub_kindEPKS1_PKvS4_S6_RNS1_16__dyncast_resultE
libx265.so.200:_ZNK10__cxxabiv121__vmi_class_type_info20__do_find_public_srcElPKvPKNS_17__class_type_infoES2_
libx265.so.200:_ZNK10x265_12bit11FrameFilter14ParallelFilter13processPostCuEi
libx265.so.200:_ZNK10x265_12bit11ScalingList13checkPredModeEii
libx265.so.200:_ZNK10x265_12bit11ScalingList23checkDefaultScalingListEv
libx265.so.200:_ZNK10x265_12bit11ScalingList28getScalingListDefaultAddressEii
libx265.so.200:_ZNK10x265_12bit3SAO13allocSaoParamEPNS_8SAOParamE
libx265.so.200:_ZNK10x265_12bit3Yuv12copyToPicYuvERNS_6PicYuvEjj
libx265.so.200:_ZNK10x265_12bit3Yuv13copyPartToYuvERS0_j
libx265.so.200:_ZNK10x265_12bit3Yuv13copyToPartYuvERS0_j
libx265.so.200:_ZNK10x265_12bit3Yuv18copyPartToPartLumaERS0_jj
libx265.so.200:_ZNK10x265_12bit3Yuv20copyPartToPartChromaERS0_jj
libx265.so.200:_ZNK10x265_12bit5Slice14realEndAddressEj
libx265.so.200:_ZNK10x265_12bit6CUData10getMvFieldEPKS0_jiRNS_7MVFieldE
libx265.so.200:_ZNK10x265_12bit6CUData10getPUAboveERjj
libx265.so.200:_ZNK10x265_12bit6CUData12getDirectPMVERNS_2MVEPNS_16InterNeighbourMVEjj
libx265.so.200:_ZNK10x265_12bit6CUData14getCtxSkipFlagEj
libx265.so.200:_ZNK10x265_12bit6CUData14getIndirectPMVERNS_2MVEPNS_16InterNeighbourMVEjj
libx265.so.200:_ZNK10x265_12bit6CUData14getLastCodedQPEj
libx265.so.200:_ZNK10x265_12bit6CUData14getNeighbourMVEjjPNS_16InterNeighbourMVE
libx265.so.200:_ZNK10x265_12bit6CUData14getPUAboveLeftERjj
libx265.so.200:_ZNK10x265_12bit6CUData14getPUBelowLeftERjj
libx265.so.200:_ZNK10x265_12bit6CUData14getQpMinCuLeftERjj
libx265.so.200:_ZNK10x265_12bit6CUData14hasEqualMotionEjRKS0_j
libx265.so.200:_ZNK10x265_12bit6CUData15deriveCenterIdxEj
libx265.so.200:_ZNK10x265_12bit6CUData15getCollocatedMVEiiPNS_16InterNeighbourMVE
libx265.so.200:_ZNK10x265_12bit6CUData15getCtxSplitFlagEjj
libx265.so.200:_ZNK10x265_12bit6CUData15getPUAboveRightERjj
libx265.so.200:_ZNK10x265_12bit6CUData15getQpMinCuAboveERjj
libx265.so.200:_ZNK10x265_12bit6CUData16scaleMvByPOCDistERKNS_2MVEiiii
libx265.so.200:_ZNK10x265_12bit6CUData17getPUBelowLeftAdiERjjj
libx265.so.200:_ZNK10x265_12bit6CUData18getPUAboveRightAdiERjjj
libx265.so.200:_ZNK10x265_12bit6CUData19deriveLeftBottomIdxEj
libx265.so.200:_ZNK10x265_12bit6CUData19getAllowedChromaDirEjPj
libx265.so.200:_ZNK10x265_12bit6CUData19getInterNeighbourMVEPNS_16InterNeighbourMVEjNS_7MVP_DIRE
libx265.so.200:_ZNK10x265_12bit6CUData19getLastValidPartIdxEi
libx265.so.200:_ZNK10x265_12bit6CUData19getPartIndexAndSizeEjRjRiS2_
libx265.so.200:_ZNK10x265_12bit6CUData20deriveRightBottomIdxEj
libx265.so.200:_ZNK10x265_12bit6CUData21deriveLeftRightTopIdxEjRjS1_
libx265.so.200:_ZNK10x265_12bit6CUData22getInterTUQtDepthRangeEPjj
libx265.so.200:_ZNK10x265_12bit6CUData22getIntraTUQtDepthRangeEPjj
libx265.so.200:_ZNK10x265_12bit6CUData23getInterMergeCandidatesEjjPA2_NS_7MVFieldEPh
libx265.so.200:_ZNK10x265_12bit6CUData24getIntraDirLumaPredictorEjPj
libx265.so.200:_ZNK10x265_12bit6CUData28getTUEntropyCodingParametersERNS_25TUEntropyCodingParametersEjjb
libx265.so.200:_ZNK10x265_12bit6CUData6clipMvERNS_2MVE
libx265.so.200:_ZNK10x265_12bit6CUData6getPMVEPNS_16InterNeighbourMVEjjPNS_2MVES4_
libx265.so.200:_ZNK10x265_12bit6CUData8getRefQPEj
libx265.so.200:_ZNK10x265_12bit6CUData9copyToPicEj
libx265.so.200:_ZNK10x265_12bit6CUData9getColMVPERNS_2MVERiiii
libx265.so.200:_ZNK10x265_12bit6CUData9getPULeftERjj
libx265.so.200:_ZNK10x265_12bit6CUData9updatePicEji
libx265.so.200:_ZNK10x265_12bit6Search12checkBestMVPEPKNS_2MVERS2_RiRjS6_
libx265.so.200:_ZNK10x265_12bit6Search14setSearchRangeERKNS_6CUDataERKNS_2MVEiRS4_S7_
libx265.so.200:_ZNK10x265_12bit6Search19getIntraRemModeBitsERNS_6CUDataEjPjRm
libx265.so.200:_ZNK10x265_12bit7Entropy13bitsInterModeERKNS_6CUDataEjj
libx265.so.200:_ZNK10x265_12bit7Entropy20estSignificantMapBitERNS_11EstBitsSbacEjb
libx265.so.200:_ZNK10x265_12bit7Entropy29estSignificantCoefficientsBitERNS_11EstBitsSbacEb
libx265.so.200:_ZNK10x265_12bit7Entropy30estSignificantCoeffGroupMapBitERNS_11EstBitsSbacEb
libx265.so.200:_ZNK10x265_12bit7Entropy6estBitERNS_11EstBitsSbacEjb
libx265.so.200:_ZNK10x265_12bit7Entropy9estCBFBitERNS_11EstBitsSbacE
libx265.so.200:_ZNK10x265_12bit7Predict11addWeightBiERKNS_14PredictionUnitERNS_3YuvERKNS_8ShortYuvES8_PKNS0_12WeightValuesESB_bb
libx265.so.200:_ZNK10x265_12bit7Predict12addWeightUniERKNS_14PredictionUnitERNS_3YuvERKNS_8ShortYuvEPKNS0_12WeightValuesEbb
libx265.so.200:_ZNK10x265_12bit7Predict18predInterLumaPixelERKNS_14PredictionUnitERNS_3YuvERKNS_6PicYuvERKNS_2MVE
libx265.so.200:_ZNK10x265_12bit7Predict18predInterLumaShortERKNS_14PredictionUnitERNS_8ShortYuvERKNS_6PicYuvERKNS_2MVE
libx265.so.200:_ZNK10x265_12bit7Predict20predInterChromaPixelERKNS_14PredictionUnitERNS_3YuvERKNS_6PicYuvERKNS_2MVE
libx265.so.200:_ZNK10x265_12bit7Predict20predInterChromaShortERKNS_14PredictionUnitERNS_8ShortYuvERKNS_6PicYuvERKNS_2MVE
libx265.so.200:_ZNK10x265_12bit8ShortYuv18copyPartToPartLumaERNS_3YuvEjj
libx265.so.200:_ZNK10x265_12bit8ShortYuv18copyPartToPartLumaERS0_jj
libx265.so.200:_ZNK10x265_12bit8ShortYuv20copyPartToPartChromaERNS_3YuvEjj
libx265.so.200:_ZNK10x265_12bit8ShortYuv20copyPartToPartChromaERS0_jj
libx265.so.200:_ZNK4x26511FrameFilter14ParallelFilter13processPostCuEi
libx265.so.200:_ZNK4x26511ScalingList13checkPredModeEii
libx265.so.200:_ZNK4x26511ScalingList23checkDefaultScalingListEv
libx265.so.200:_ZNK4x26511ScalingList28getScalingListDefaultAddressEii
libx265.so.200:_ZNK4x2653SAO13allocSaoParamEPNS_8SAOParamE
libx265.so.200:_ZNK4x2653Yuv12copyToPicYuvERNS_6PicYuvEjj
libx265.so.200:_ZNK4x2653Yuv13copyPartToYuvERS0_j
libx265.so.200:_ZNK4x2653Yuv13copyToPartYuvERS0_j
libx265.so.200:_ZNK4x2653Yuv18copyPartToPartLumaERS0_jj
libx265.so.200:_ZNK4x2653Yuv20copyPartToPartChromaERS0_jj
libx265.so.200:_ZNK4x2655Slice14realEndAddressEj
libx265.so.200:_ZNK4x2656CUData10getMvFieldEPKS0_jiRNS_7MVFieldE
libx265.so.200:_ZNK4x2656CUData10getPUAboveERjj
libx265.so.200:_ZNK4x2656CUData12getDirectPMVERNS_2MVEPNS_16InterNeighbourMVEjj
libx265.so.200:_ZNK4x2656CUData14getCtxSkipFlagEj
libx265.so.200:_ZNK4x2656CUData14getIndirectPMVERNS_2MVEPNS_16InterNeighbourMVEjj
libx265.so.200:_ZNK4x2656CUData14getLastCodedQPEj
libx265.so.200:_ZNK4x2656CUData14getNeighbourMVEjjPNS_16InterNeighbourMVE
libx265.so.200:_ZNK4x2656CUData14getPUAboveLeftERjj
libx265.so.200:_ZNK4x2656CUData14getPUBelowLeftERjj
libx265.so.200:_ZNK4x2656CUData14getQpMinCuLeftERjj
libx265.so.200:_ZNK4x2656CUData14hasEqualMotionEjRKS0_j
libx265.so.200:_ZNK4x2656CUData15deriveCenterIdxEj
libx265.so.200:_ZNK4x2656CUData15getCollocatedMVEiiPNS_16InterNeighbourMVE
libx265.so.200:_ZNK4x2656CUData15getCtxSplitFlagEjj
libx265.so.200:_ZNK4x2656CUData15getPUAboveRightERjj
libx265.so.200:_ZNK4x2656CUData15getQpMinCuAboveERjj
libx265.so.200:_ZNK4x2656CUData16scaleMvByPOCDistERKNS_2MVEiiii
libx265.so.200:_ZNK4x2656CUData17getPUBelowLeftAdiERjjj
libx265.so.200:_ZNK4x2656CUData18getPUAboveRightAdiERjjj
libx265.so.200:_ZNK4x2656CUData19deriveLeftBottomIdxEj
libx265.so.200:_ZNK4x2656CUData19getAllowedChromaDirEjPj
libx265.so.200:_ZNK4x2656CUData19getInterNeighbourMVEPNS_16InterNeighbourMVEjNS_7MVP_DIRE
libx265.so.200:_ZNK4x2656CUData19getLastValidPartIdxEi
libx265.so.200:_ZNK4x2656CUData19getPartIndexAndSizeEjRjRiS2_
libx265.so.200:_ZNK4x2656CUData20deriveRightBottomIdxEj
libx265.so.200:_ZNK4x2656CUData21deriveLeftRightTopIdxEjRjS1_
libx265.so.200:_ZNK4x2656CUData22getInterTUQtDepthRangeEPjj
libx265.so.200:_ZNK4x2656CUData22getIntraTUQtDepthRangeEPjj
libx265.so.200:_ZNK4x2656CUData23getInterMergeCandidatesEjjPA2_NS_7MVFieldEPh
libx265.so.200:_ZNK4x2656CUData24getIntraDirLumaPredictorEjPj
libx265.so.200:_ZNK4x2656CUData28getTUEntropyCodingParametersERNS_25TUEntropyCodingParametersEjjb
libx265.so.200:_ZNK4x2656CUData6clipMvERNS_2MVE
libx265.so.200:_ZNK4x2656CUData6getPMVEPNS_16InterNeighbourMVEjjPNS_2MVES4_
libx265.so.200:_ZNK4x2656CUData8getRefQPEj
libx265.so.200:_ZNK4x2656CUData9copyToPicEj
libx265.so.200:_ZNK4x2656CUData9getColMVPERNS_2MVERiiii
libx265.so.200:_ZNK4x2656CUData9getPULeftERjj
libx265.so.200:_ZNK4x2656CUData9updatePicEji
libx265.so.200:_ZNK4x2656Search12checkBestMVPEPKNS_2MVERS2_RiRjS6_
libx265.so.200:_ZNK4x2656Search14setSearchRangeERKNS_6CUDataERKNS_2MVEiRS4_S7_
libx265.so.200:_ZNK4x2656Search19getIntraRemModeBitsERNS_6CUDataEjPjRm
libx265.so.200:_ZNK4x2657Entropy13bitsInterModeERKNS_6CUDataEjj
libx265.so.200:_ZNK4x2657Entropy20estSignificantMapBitERNS_11EstBitsSbacEjb
libx265.so.200:_ZNK4x2657Entropy29estSignificantCoefficientsBitERNS_11EstBitsSbacEb
libx265.so.200:_ZNK4x2657Entropy30estSignificantCoeffGroupMapBitERNS_11EstBitsSbacEb
libx265.so.200:_ZNK4x2657Entropy6estBitERNS_11EstBitsSbacEjb
libx265.so.200:_ZNK4x2657Entropy9estCBFBitERNS_11EstBitsSbacE
libx265.so.200:_ZNK4x2657Predict11addWeightBiERKNS_14PredictionUnitERNS_3YuvERKNS_8ShortYuvES8_PKNS0_12WeightValuesESB_bb
libx265.so.200:_ZNK4x2657Predict12addWeightUniERKNS_14PredictionUnitERNS_3YuvERKNS_8ShortYuvEPKNS0_12WeightValuesEbb
libx265.so.200:_ZNK4x2657Predict18predInterLumaPixelERKNS_14PredictionUnitERNS_3YuvERKNS_6PicYuvERKNS_2MVE
libx265.so.200:_ZNK4x2657Predict18predInterLumaShortERKNS_14PredictionUnitERNS_8ShortYuvERKNS_6PicYuvERKNS_2MVE
libx265.so.200:_ZNK4x2657Predict20predInterChromaPixelERKNS_14PredictionUnitERNS_3YuvERKNS_6PicYuvERKNS_2MVE
libx265.so.200:_ZNK4x2657Predict20predInterChromaShortERKNS_14PredictionUnitERNS_8ShortYuvERKNS_6PicYuvERKNS_2MVE
libx265.so.200:_ZNK4x2658ShortYuv18copyPartToPartLumaERNS_3YuvEjj
libx265.so.200:_ZNK4x2658ShortYuv18copyPartToPartLumaERS0_jj
libx265.so.200:_ZNK4x2658ShortYuv20copyPartToPartChromaERNS_3YuvEjj
libx265.so.200:_ZNK4x2658ShortYuv20copyPartToPartChromaERS0_jj
libx265.so.200:_ZNK6json1110JsonObjectixERKNSt7__cxx1112basic_stringIcSt11char_traitsIcESaIcEEE
libx265.so.200:_ZNK6json114Json10bool_valueEv
libx265.so.200:_ZNK6json114Json11array_itemsEv
libx265.so.200:_ZNK6json114Json12number_valueEv
libx265.so.200:_ZNK6json114Json12object_itemsB5cxx11Ev
libx265.so.200:_ZNK6json114Json12string_valueB5cxx11Ev
libx265.so.200:_ZNK6json114Json4dumpERNSt7__cxx1112basic_stringIcSt11char_traitsIcESaIcEEE
libx265.so.200:_ZNK6json114Json4typeEv
libx265.so.200:_ZNK6json114Json9has_shapeERKSt16initializer_listISt4pairINSt7__cxx1112basic_stringIcSt11char_traitsIcESaIcEEENS0_4TypeEEERS8_
libx265.so.200:_ZNK6json114Json9int_valueEv
libx265.so.200:_ZNK6json114JsoneqERKS0_
libx265.so.200:_ZNK6json114JsonixERKNSt7__cxx1112basic_stringIcSt11char_traitsIcESaIcEEE
libx265.so.200:_ZNK6json114JsonixEm
libx265.so.200:_ZNK6json114JsonltERKS0_
libx265.so.200:_ZNK6json119JsonArrayixEm
libx265.so.200:_ZNK6json119JsonValue10bool_valueEv
libx265.so.200:_ZNK6json119JsonValue11array_itemsEv
libx265.so.200:_ZNK6json119JsonValue12number_valueEv
libx265.so.200:_ZNK6json119JsonValue12object_itemsB5cxx11Ev
libx265.so.200:_ZNK6json119JsonValue12string_valueB5cxx11Ev
libx265.so.200:_ZNK6json119JsonValue9int_valueEv
libx265.so.200:_ZNK6json119JsonValueixERKNSt7__cxx1112basic_stringIcSt11char_traitsIcESaIcEEE
libx265.so.200:_ZNK6json119JsonValueixEm
libx265.so.200:_ZNKSt10bad_typeid4whatEv
libx265.so.200:_ZNKSt10error_code23default_error_conditionEv
libx265.so.200:_ZNKSt11__timepunctIcE6_M_putEPcmPKcPK2tm
libx265.so.200:_ZNKSt11__timepunctIwE6_M_putEPwmPKwPK2tm
libx265.so.200:_ZNKSt11logic_error4whatEv
libx265.so.200:_ZNKSt12__basic_fileIcE7is_openEv
libx265.so.200:_ZNKSt13bad_exception4whatEv
libx265.so.200:_ZNKSt13random_device13_M_getentropyEv
libx265.so.200:_ZNKSt13runtime_error4whatEv
libx265.so.200:_ZNKSt19__codecvt_utf8_baseIDiE10do_unshiftER11__mbstate_tPcS3_RS3_
libx265.so.200:_ZNKSt19__codecvt_utf8_baseIDiE11do_encodingEv
libx265.so.200:_ZNKSt19__codecvt_utf8_baseIDiE13do_max_lengthEv
libx265.so.200:_ZNKSt19__codecvt_utf8_baseIDiE16do_always_noconvEv
libx265.so.200:_ZNKSt19__codecvt_utf8_baseIDiE5do_inER11__mbstate_tPKcS4_RS4_PDiS6_RS6_
libx265.so.200:_ZNKSt19__codecvt_utf8_baseIDiE6do_outER11__mbstate_tPKDiS4_RS4_PcS6_RS6_
libx265.so.200:_ZNKSt19__codecvt_utf8_baseIDiE9do_lengthER11__mbstate_tPKcS4_m
libx265.so.200:_ZNKSt19__codecvt_utf8_baseIDsE10do_unshiftER11__mbstate_tPcS3_RS3_
libx265.so.200:_ZNKSt19__codecvt_utf8_baseIDsE11do_encodingEv
libx265.so.200:_ZNKSt19__codecvt_utf8_baseIDsE13do_max_lengthEv
libx265.so.200:_ZNKSt19__codecvt_utf8_baseIDsE16do_always_noconvEv
libx265.so.200:_ZNKSt19__codecvt_utf8_baseIDsE5do_inER11__mbstate_tPKcS4_RS4_PDsS6_RS6_
libx265.so.200:_ZNKSt19__codecvt_utf8_baseIDsE6do_outER11__mbstate_tPKDsS4_RS4_PcS6_RS6_
libx265.so.200:_ZNKSt19__codecvt_utf8_baseIDsE9do_lengthER11__mbstate_tPKcS4_m
libx265.so.200:_ZNKSt19__codecvt_utf8_baseIwE10do_unshiftER11__mbstate_tPcS3_RS3_
libx265.so.200:_ZNKSt19__codecvt_utf8_baseIwE11do_encodingEv
libx265.so.200:_ZNKSt19__codecvt_utf8_baseIwE13do_max_lengthEv
libx265.so.200:_ZNKSt19__codecvt_utf8_baseIwE16do_always_noconvEv
libx265.so.200:_ZNKSt19__codecvt_utf8_baseIwE5do_inER11__mbstate_tPKcS4_RS4_PwS6_RS6_
libx265.so.200:_ZNKSt19__codecvt_utf8_baseIwE6do_outER11__mbstate_tPKwS4_RS4_PcS6_RS6_
libx265.so.200:_ZNKSt19__codecvt_utf8_baseIwE9do_lengthER11__mbstate_tPKcS4_m
libx265.so.200:_ZNKSt19__iosfail_type_info11__do_upcastEPKN10__cxxabiv117__class_type_infoEPPv
libx265.so.200:_ZNKSt20__codecvt_utf16_baseIDiE10do_unshiftER11__mbstate_tPcS3_RS3_
libx265.so.200:_ZNKSt20__codecvt_utf16_baseIDiE11do_encodingEv
libx265.so.200:_ZNKSt20__codecvt_utf16_baseIDiE13do_max_lengthEv
libx265.so.200:_ZNKSt20__codecvt_utf16_baseIDiE16do_always_noconvEv
libx265.so.200:_ZNKSt20__codecvt_utf16_baseIDiE5do_inER11__mbstate_tPKcS4_RS4_PDiS6_RS6_
libx265.so.200:_ZNKSt20__codecvt_utf16_baseIDiE6do_outER11__mbstate_tPKDiS4_RS4_PcS6_RS6_
libx265.so.200:_ZNKSt20__codecvt_utf16_baseIDiE9do_lengthER11__mbstate_tPKcS4_m
libx265.so.200:_ZNKSt20__codecvt_utf16_baseIDsE10do_unshiftER11__mbstate_tPcS3_RS3_
libx265.so.200:_ZNKSt20__codecvt_utf16_baseIDsE11do_encodingEv
libx265.so.200:_ZNKSt20__codecvt_utf16_baseIDsE13do_max_lengthEv
libx265.so.200:_ZNKSt20__codecvt_utf16_baseIDsE16do_always_noconvEv
libx265.so.200:_ZNKSt20__codecvt_utf16_baseIDsE5do_inER11__mbstate_tPKcS4_RS4_PDsS6_RS6_
libx265.so.200:_ZNKSt20__codecvt_utf16_baseIDsE6do_outER11__mbstate_tPKDsS4_RS4_PcS6_RS6_
libx265.so.200:_ZNKSt20__codecvt_utf16_baseIDsE9do_lengthER11__mbstate_tPKcS4_m
libx265.so.200:_ZNKSt20__codecvt_utf16_baseIwE10do_unshiftER11__mbstate_tPcS3_RS3_
libx265.so.200:_ZNKSt20__codecvt_utf16_baseIwE11do_encodingEv
libx265.so.200:_ZNKSt20__codecvt_utf16_baseIwE13do_max_lengthEv
libx265.so.200:_ZNKSt20__codecvt_utf16_baseIwE16do_always_noconvEv
libx265.so.200:_ZNKSt20__codecvt_utf16_baseIwE5do_inER11__mbstate_tPKcS4_RS4_PwS6_RS6_
libx265.so.200:_ZNKSt20__codecvt_utf16_baseIwE6do_outER11__mbstate_tPKwS4_RS4_PcS6_RS6_
libx265.so.200:_ZNKSt20__codecvt_utf16_baseIwE9do_lengthER11__mbstate_tPKcS4_m
libx265.so.200:_ZNKSt20bad_array_new_length4whatEv
libx265.so.200:_ZNKSt25__codecvt_utf8_utf16_baseIDiE10do_unshiftER11__mbstate_tPcS3_RS3_
libx265.so.200:_ZNKSt25__codecvt_utf8_utf16_baseIDiE11do_encodingEv
libx265.so.200:_ZNKSt25__codecvt_utf8_utf16_baseIDiE13do_max_lengthEv
libx265.so.200:_ZNKSt25__codecvt_utf8_utf16_baseIDiE16do_always_noconvEv
libx265.so.200:_ZNKSt25__codecvt_utf8_utf16_baseIDiE5do_inER11__mbstate_tPKcS4_RS4_PDiS6_RS6_
libx265.so.200:_ZNKSt25__codecvt_utf8_utf16_baseIDiE6do_outER11__mbstate_tPKDiS4_RS4_PcS6_RS6_
libx265.so.200:_ZNKSt25__codecvt_utf8_utf16_baseIDiE9do_lengthER11__mbstate_tPKcS4_m
libx265.so.200:_ZNKSt25__codecvt_utf8_utf16_baseIDsE10do_unshiftER11__mbstate_tPcS3_RS3_
libx265.so.200:_ZNKSt25__codecvt_utf8_utf16_baseIDsE11do_encodingEv
libx265.so.200:_ZNKSt25__codecvt_utf8_utf16_baseIDsE13do_max_lengthEv
libx265.so.200:_ZNKSt25__codecvt_utf8_utf16_baseIDsE16do_always_noconvEv
libx265.so.200:_ZNKSt25__codecvt_utf8_utf16_baseIDsE5do_inER11__mbstate_tPKcS4_RS4_PDsS6_RS6_
libx265.so.200:_ZNKSt25__codecvt_utf8_utf16_baseIDsE6do_outER11__mbstate_tPKDsS4_RS4_PcS6_RS6_
libx265.so.200:_ZNKSt25__codecvt_utf8_utf16_baseIDsE9do_lengthER11__mbstate_tPKcS4_m
libx265.so.200:_ZNKSt25__codecvt_utf8_utf16_baseIwE10do_unshiftER11__mbstate_tPcS3_RS3_
libx265.so.200:_ZNKSt25__codecvt_utf8_utf16_baseIwE11do_encodingEv
libx265.so.200:_ZNKSt25__codecvt_utf8_utf16_baseIwE13do_max_lengthEv
libx265.so.200:_ZNKSt25__codecvt_utf8_utf16_baseIwE16do_always_noconvEv
libx265.so.200:_ZNKSt25__codecvt_utf8_utf16_baseIwE5do_inER11__mbstate_tPKcS4_RS4_PwS6_RS6_
libx265.so.200:_ZNKSt25__codecvt_utf8_utf16_baseIwE6do_outER11__mbstate_tPKwS4_RS4_PcS6_RS6_
libx265.so.200:_ZNKSt25__codecvt_utf8_utf16_baseIwE9do_lengthER11__mbstate_tPKcS4_m
libx265.so.200:_ZNKSt3_V214error_category10_M_messageB5cxx11Ei
libx265.so.200:_ZNKSt3_V214error_category10_M_messageEi
libx265.so.200:_ZNKSt3_V214error_category10equivalentERKSt10error_codei
libx265.so.200:_ZNKSt3_V214error_category10equivalentEiRKSt15error_condition
libx265.so.200:_ZNKSt3_V214error_category23default_error_conditionEi
libx265.so.200:_ZNKSt5ctypeIcE10do_tolowerEPcPKc
libx265.so.200:_ZNKSt5ctypeIcE10do_tolowerEc
libx265.so.200:_ZNKSt5ctypeIcE10do_toupperEPcPKc
libx265.so.200:_ZNKSt5ctypeIcE10do_toupperEc
libx265.so.200:_ZNKSt5ctypeIcE13_M_widen_initEv
libx265.so.200:_ZNKSt5ctypeIcE14_M_narrow_initEv
libx265.so.200:_ZNKSt5ctypeIwE10do_scan_isEtPKwS2_
libx265.so.200:_ZNKSt5ctypeIwE10do_tolowerEPwPKw
libx265.so.200:_ZNKSt5ctypeIwE10do_tolowerEw
libx265.so.200:_ZNKSt5ctypeIwE10do_toupperEPwPKw
libx265.so.200:_ZNKSt5ctypeIwE10do_toupperEw
libx265.so.200:_ZNKSt5ctypeIwE11do_scan_notEtPKwS2_
libx265.so.200:_ZNKSt5ctypeIwE19_M_convert_to_wmaskEt
libx265.so.200:_ZNKSt5ctypeIwE5do_isEPKwS2_Pt
libx265.so.200:_ZNKSt5ctypeIwE5do_isEtw
libx265.so.200:_ZNKSt5ctypeIwE8do_widenEPKcS2_Pw
libx265.so.200:_ZNKSt5ctypeIwE8do_widenEc
libx265.so.200:_ZNKSt5ctypeIwE9do_narrowEPKwS2_cPc
libx265.so.200:_ZNKSt5ctypeIwE9do_narrowEwc
libx265.so.200:_ZNKSt6locale2id5_M_idEv
libx265.so.200:_ZNKSt6locale4nameB5cxx11Ev
libx265.so.200:_ZNKSt6locale4nameEv
libx265.so.200:_ZNKSt6locale5facet11_M_cow_shimEPKNS_2idE
libx265.so.200:_ZNKSt6locale5facet11_M_sso_shimEPKNS_2idE
libx265.so.200:_ZNKSt6localeeqERKS_
libx265.so.200:_ZNKSt7__cxx117collateIcE10_M_compareEPKcS3_
libx265.so.200:_ZNKSt7__cxx117collateIcE12_M_transformEPcPKcm
libx265.so.200:_ZNKSt7__cxx117collateIwE10_M_compareEPKwS3_
libx265.so.200:_ZNKSt7__cxx117collateIwE12_M_transformEPwPKwm
libx265.so.200:_ZNKSt7__cxx118messagesIcE6do_getEiiiRKNS_12basic_stringIcSt11char_traitsIcESaIcEEE
libx265.so.200:_ZNKSt7__cxx118messagesIcE7do_openERKNS_12basic_stringIcSt11char_traitsIcESaIcEEERKSt6locale
libx265.so.200:_ZNKSt7__cxx118messagesIcE8do_closeEi
libx265.so.200:_ZNKSt7__cxx118messagesIwE6do_getEiiiRKNS_12basic_stringIwSt11char_traitsIwESaIwEEE
libx265.so.200:_ZNKSt7__cxx118messagesIwE7do_openERKNS_12basic_stringIcSt11char_traitsIcESaIcEEERKSt6locale
libx265.so.200:_ZNKSt7__cxx118messagesIwE8do_closeEi
libx265.so.200:_ZNKSt7codecvtIDiDu11__mbstate_tE10do_unshiftERS0_PDuS3_RS3_
libx265.so.200:_ZNKSt7codecvtIDiDu11__mbstate_tE11do_encodingEv
libx265.so.200:_ZNKSt7codecvtIDiDu11__mbstate_tE13do_max_lengthEv
libx265.so.200:_ZNKSt7codecvtIDiDu11__mbstate_tE16do_always_noconvEv
libx265.so.200:_ZNKSt7codecvtIDiDu11__mbstate_tE5do_inERS0_PKDuS4_RS4_PDiS6_RS6_
libx265.so.200:_ZNKSt7codecvtIDiDu11__mbstate_tE6do_outERS0_PKDiS4_RS4_PDuS6_RS6_
libx265.so.200:_ZNKSt7codecvtIDiDu11__mbstate_tE9do_lengthERS0_PKDuS4_m
libx265.so.200:_ZNKSt7codecvtIDic11__mbstate_tE10do_unshiftERS0_PcS3_RS3_
libx265.so.200:_ZNKSt7codecvtIDic11__mbstate_tE11do_encodingEv
libx265.so.200:_ZNKSt7codecvtIDic11__mbstate_tE13do_max_lengthEv
libx265.so.200:_ZNKSt7codecvtIDic11__mbstate_tE16do_always_noconvEv
libx265.so.200:_ZNKSt7codecvtIDic11__mbstate_tE5do_inERS0_PKcS4_RS4_PDiS6_RS6_
libx265.so.200:_ZNKSt7codecvtIDic11__mbstate_tE6do_outERS0_PKDiS4_RS4_PcS6_RS6_
libx265.so.200:_ZNKSt7codecvtIDic11__mbstate_tE9do_lengthERS0_PKcS4_m
libx265.so.200:_ZNKSt7codecvtIDsDu11__mbstate_tE10do_unshiftERS0_PDuS3_RS3_
libx265.so.200:_ZNKSt7codecvtIDsDu11__mbstate_tE11do_encodingEv
libx265.so.200:_ZNKSt7codecvtIDsDu11__mbstate_tE13do_max_lengthEv
libx265.so.200:_ZNKSt7codecvtIDsDu11__mbstate_tE16do_always_noconvEv
libx265.so.200:_ZNKSt7codecvtIDsDu11__mbstate_tE5do_inERS0_PKDuS4_RS4_PDsS6_RS6_
libx265.so.200:_ZNKSt7codecvtIDsDu11__mbstate_tE6do_outERS0_PKDsS4_RS4_PDuS6_RS6_
libx265.so.200:_ZNKSt7codecvtIDsDu11__mbstate_tE9do_lengthERS0_PKDuS4_m
libx265.so.200:_ZNKSt7codecvtIDsc11__mbstate_tE10do_unshiftERS0_PcS3_RS3_
libx265.so.200:_ZNKSt7codecvtIDsc11__mbstate_tE11do_encodingEv
libx265.so.200:_ZNKSt7codecvtIDsc11__mbstate_tE13do_max_lengthEv
libx265.so.200:_ZNKSt7codecvtIDsc11__mbstate_tE16do_always_noconvEv
libx265.so.200:_ZNKSt7codecvtIDsc11__mbstate_tE5do_inERS0_PKcS4_RS4_PDsS6_RS6_
libx265.so.200:_ZNKSt7codecvtIDsc11__mbstate_tE6do_outERS0_PKDsS4_RS4_PcS6_RS6_
libx265.so.200:_ZNKSt7codecvtIDsc11__mbstate_tE9do_lengthERS0_PKcS4_m
libx265.so.200:_ZNKSt7codecvtIcc11__mbstate_tE10do_unshiftERS0_PcS3_RS3_
libx265.so.200:_ZNKSt7codecvtIcc11__mbstate_tE11do_encodingEv
libx265.so.200:_ZNKSt7codecvtIcc11__mbstate_tE13do_max_lengthEv
libx265.so.200:_ZNKSt7codecvtIcc11__mbstate_tE16do_always_noconvEv
libx265.so.200:_ZNKSt7codecvtIcc11__mbstate_tE5do_inERS0_PKcS4_RS4_PcS6_RS6_
libx265.so.200:_ZNKSt7codecvtIcc11__mbstate_tE6do_outERS0_PKcS4_RS4_PcS6_RS6_
libx265.so.200:_ZNKSt7codecvtIcc11__mbstate_tE9do_lengthERS0_PKcS4_m
libx265.so.200:_ZNKSt7codecvtIwc11__mbstate_tE10do_unshiftERS0_PcS3_RS3_
libx265.so.200:_ZNKSt7codecvtIwc11__mbstate_tE11do_encodingEv
libx265.so.200:_ZNKSt7codecvtIwc11__mbstate_tE13do_max_lengthEv
libx265.so.200:_ZNKSt7codecvtIwc11__mbstate_tE16do_always_noconvEv
libx265.so.200:_ZNKSt7codecvtIwc11__mbstate_tE5do_inERS0_PKcS4_RS4_PwS6_RS6_
libx265.so.200:_ZNKSt7codecvtIwc11__mbstate_tE6do_outERS0_PKwS4_RS4_PcS6_RS6_
libx265.so.200:_ZNKSt7codecvtIwc11__mbstate_tE9do_lengthERS0_PKcS4_m
libx265.so.200:_ZNKSt7collateIcE10_M_compareEPKcS2_
libx265.so.200:_ZNKSt7collateIcE12_M_transformEPcPKcm
libx265.so.200:_ZNKSt7collateIwE10_M_compareEPKwS2_
libx265.so.200:_ZNKSt7collateIwE12_M_transformEPwPKwm
libx265.so.200:_ZNKSt8Catalogs6_M_getEi
libx265.so.200:_ZNKSt8bad_cast4whatEv
libx265.so.200:_ZNKSt8ios_base7failure4whatEv
libx265.so.200:_ZNKSt8ios_base7failureB5cxx114whatEv
libx265.so.200:_ZNKSt8messagesIcE6do_getEiiiRKSs
libx265.so.200:_ZNKSt8messagesIcE7do_openERKSsRKSt6locale
libx265.so.200:_ZNKSt8messagesIcE8do_closeEi
libx265.so.200:_ZNKSt8messagesIwE6do_getEiiiRKSbIwSt11char_traitsIwESaIwEE
libx265.so.200:_ZNKSt8messagesIwE7do_openERKSsRKSt6locale
libx265.so.200:_ZNKSt8messagesIwE8do_closeEi
libx265.so.200:_ZNKSt9bad_alloc4whatEv
libx265.so.200:_ZNKSt9exception4whatEv
libx265.so.200:_ZNKSt9type_info10__do_catchEPKS_PPvj
libx265.so.200:_ZNKSt9type_info11__do_upcastEPKN10__cxxabiv117__class_type_infoEPPv
libx265.so.200:_ZNKSt9type_info14__is_pointer_pEv
libx265.so.200:_ZNKSt9type_info15__is_function_pEv
libx265.so.200:_ZNSi6ignoreEl
libx265.so.200:_ZNSi6ignoreEli
libx265.so.200:_ZNSi7getlineEPclc
libx265.so.200:_ZNSt10__num_base15_S_format_floatERKSt8ios_basePcc
libx265.so.200:_ZNSt10bad_typeidD0Ev
libx265.so.200:_ZNSt10bad_typeidD1Ev
libx265.so.200:_ZNSt10bad_typeidD2Ev
libx265.so.200:_ZNSt10money_base20_S_construct_patternEccc
libx265.so.200:_ZNSt10moneypunctIcLb0EE24_M_initialize_moneypunctEP15__locale_structPKc
libx265.so.200:_ZNSt10moneypunctIcLb0EED0Ev
libx265.so.200:_ZNSt10moneypunctIcLb0EED1Ev
libx265.so.200:_ZNSt10moneypunctIcLb0EED2Ev
libx265.so.200:_ZNSt10moneypunctIcLb1EE24_M_initialize_moneypunctEP15__locale_structPKc
libx265.so.200:_ZNSt10moneypunctIcLb1EED0Ev
libx265.so.200:_ZNSt10moneypunctIcLb1EED1Ev
libx265.so.200:_ZNSt10moneypunctIcLb1EED2Ev
libx265.so.200:_ZNSt10moneypunctIwLb0EE24_M_initialize_moneypunctEP15__locale_structPKc
libx265.so.200:_ZNSt10moneypunctIwLb0EED0Ev
libx265.so.200:_ZNSt10moneypunctIwLb0EED1Ev
libx265.so.200:_ZNSt10moneypunctIwLb0EED2Ev
libx265.so.200:_ZNSt10moneypunctIwLb1EE24_M_initialize_moneypunctEP15__locale_structPKc
libx265.so.200:_ZNSt10moneypunctIwLb1EED0Ev
libx265.so.200:_ZNSt10moneypunctIwLb1EED1Ev
libx265.so.200:_ZNSt10moneypunctIwLb1EED2Ev
libx265.so.200:_ZNSt11__timepunctIcE23_M_initialize_timepunctEP15__locale_struct
libx265.so.200:_ZNSt11__timepunctIwE23_M_initialize_timepunctEP15__locale_struct
libx265.so.200:_ZNSt11logic_errorC1EOS_
libx265.so.200:_ZNSt11logic_errorC1EPKc
libx265.so.200:_ZNSt11logic_errorC1ERKNSt7__cxx1112basic_stringIcSt11char_traitsIcESaIcEEE
libx265.so.200:_ZNSt11logic_errorC1ERKS_
libx265.so.200:_ZNSt11logic_errorC1ERKSs
libx265.so.200:_ZNSt11logic_errorC2EOS_
libx265.so.200:_ZNSt11logic_errorC2EPKc
libx265.so.200:_ZNSt11logic_errorC2ERKNSt7__cxx1112basic_stringIcSt11char_traitsIcESaIcEEE
libx265.so.200:_ZNSt11logic_errorC2ERKS_
libx265.so.200:_ZNSt11logic_errorC2ERKSs
libx265.so.200:_ZNSt11logic_errorD0Ev
libx265.so.200:_ZNSt11logic_errorD1Ev
libx265.so.200:_ZNSt11logic_errorD2Ev
libx265.so.200:_ZNSt11logic_erroraSEOS_
libx265.so.200:_ZNSt11logic_erroraSERKS_
libx265.so.200:_ZNSt11range_errorC1EPKc
libx265.so.200:_ZNSt11range_errorC1ERKNSt7__cxx1112basic_stringIcSt11char_traitsIcESaIcEEE
libx265.so.200:_ZNSt11range_errorC1ERKSs
libx265.so.200:_ZNSt11range_errorC2EPKc
libx265.so.200:_ZNSt11range_errorC2ERKNSt7__cxx1112basic_stringIcSt11char_traitsIcESaIcEEE
libx265.so.200:_ZNSt11range_errorC2ERKSs
libx265.so.200:_ZNSt11range_errorD0Ev
libx265.so.200:_ZNSt11range_errorD1Ev
libx265.so.200:_ZNSt11range_errorD2Ev
libx265.so.200:_ZNSt12__basic_fileIcE2fdEv
libx265.so.200:_ZNSt12__basic_fileIcE4fileEv
libx265.so.200:_ZNSt12__basic_fileIcE4openEPKcSt13_Ios_Openmodei
libx265.so.200:_ZNSt12__basic_fileIcE4syncEv
libx265.so.200:_ZNSt12__basic_fileIcE5closeEv
libx265.so.200:_ZNSt12__basic_fileIcE6xsgetnEPcl
libx265.so.200:_ZNSt12__basic_fileIcE6xsputnEPKcl
libx265.so.200:_ZNSt12__basic_fileIcE7seekoffElSt12_Ios_Seekdir
libx265.so.200:_ZNSt12__basic_fileIcE8sys_openEP8_IO_FILESt13_Ios_Openmode
libx265.so.200:_ZNSt12__basic_fileIcE8sys_openEiSt13_Ios_Openmode
libx265.so.200:_ZNSt12__basic_fileIcE8xsputn_2EPKclS2_l
libx265.so.200:_ZNSt12__basic_fileIcE9showmanycEv
libx265.so.200:_ZNSt12__basic_fileIcEC1EP15pthread_mutex_t
libx265.so.200:_ZNSt12__basic_fileIcEC2EP15pthread_mutex_t
libx265.so.200:_ZNSt12__basic_fileIcED1Ev
libx265.so.200:_ZNSt12__basic_fileIcED2Ev
libx265.so.200:_ZNSt12__cow_stringC1EOS_
libx265.so.200:_ZNSt12__cow_stringC1EPKcm
libx265.so.200:_ZNSt12__cow_stringC1ERKNSt7__cxx1112basic_stringIcSt11char_traitsIcESaIcEEE
libx265.so.200:_ZNSt12__cow_stringC1ERKS_
libx265.so.200:_ZNSt12__cow_stringC1ERKSs
libx265.so.200:_ZNSt12__cow_stringC1Ev
libx265.so.200:_ZNSt12__cow_stringC2EOS_
libx265.so.200:_ZNSt12__cow_stringC2EPKcm
libx265.so.200:_ZNSt12__cow_stringC2ERKNSt7__cxx1112basic_stringIcSt11char_traitsIcESaIcEEE
libx265.so.200:_ZNSt12__cow_stringC2ERKS_
libx265.so.200:_ZNSt12__cow_stringC2ERKSs
libx265.so.200:_ZNSt12__cow_stringC2Ev
libx265.so.200:_ZNSt12__cow_stringD1Ev
libx265.so.200:_ZNSt12__cow_stringD2Ev
libx265.so.200:_ZNSt12__cow_stringaSEOS_
libx265.so.200:_ZNSt12__cow_stringaSERKS_
libx265.so.200:_ZNSt12__sso_stringC1EOS_
libx265.so.200:_ZNSt12__sso_stringC1EPKcm
libx265.so.200:_ZNSt12__sso_stringC1ERKNSt7__cxx1112basic_stringIcSt11char_traitsIcESaIcEEE
libx265.so.200:_ZNSt12__sso_stringC1ERKS_
libx265.so.200:_ZNSt12__sso_stringC1ERKSs
libx265.so.200:_ZNSt12__sso_stringC1Ev
libx265.so.200:_ZNSt12__sso_stringC2EOS_
libx265.so.200:_ZNSt12__sso_stringC2EPKcm
libx265.so.200:_ZNSt12__sso_stringC2ERKNSt7__cxx1112basic_stringIcSt11char_traitsIcESaIcEEE
libx265.so.200:_ZNSt12__sso_stringC2ERKS_
libx265.so.200:_ZNSt12__sso_stringC2ERKSs
libx265.so.200:_ZNSt12__sso_stringC2Ev
libx265.so.200:_ZNSt12__sso_stringD1Ev
libx265.so.200:_ZNSt12__sso_stringD2Ev
libx265.so.200:_ZNSt12__sso_stringaSEOS_
libx265.so.200:_ZNSt12__sso_stringaSERKS_
libx265.so.200:_ZNSt12ctype_bynameIcEC1EPKcm
libx265.so.200:_ZNSt12ctype_bynameIcEC1ERKNSt7__cxx1112basic_stringIcSt11char_traitsIcESaIcEEEm
libx265.so.200:_ZNSt12ctype_bynameIcEC1ERKSsm
libx265.so.200:_ZNSt12ctype_bynameIcEC2EPKcm
libx265.so.200:_ZNSt12ctype_bynameIcEC2ERKNSt7__cxx1112basic_stringIcSt11char_traitsIcESaIcEEEm
libx265.so.200:_ZNSt12ctype_bynameIcEC2ERKSsm
libx265.so.200:_ZNSt12ctype_bynameIcED0Ev
libx265.so.200:_ZNSt12ctype_bynameIcED1Ev
libx265.so.200:_ZNSt12ctype_bynameIcED2Ev
libx265.so.200:_ZNSt12ctype_bynameIwEC1EPKcm
libx265.so.200:_ZNSt12ctype_bynameIwEC1ERKNSt7__cxx1112basic_stringIcSt11char_traitsIcESaIcEEEm
libx265.so.200:_ZNSt12ctype_bynameIwEC1ERKSsm
libx265.so.200:_ZNSt12ctype_bynameIwEC2EPKcm
libx265.so.200:_ZNSt12ctype_bynameIwEC2ERKNSt7__cxx1112basic_stringIcSt11char_traitsIcESaIcEEEm
libx265.so.200:_ZNSt12ctype_bynameIwEC2ERKSsm
libx265.so.200:_ZNSt12ctype_bynameIwED0Ev
libx265.so.200:_ZNSt12ctype_bynameIwED1Ev
libx265.so.200:_ZNSt12ctype_bynameIwED2Ev
libx265.so.200:_ZNSt12domain_errorC1EPKc
libx265.so.200:_ZNSt12domain_errorC1ERKNSt7__cxx1112basic_stringIcSt11char_traitsIcESaIcEEE
libx265.so.200:_ZNSt12domain_errorC1ERKSs
libx265.so.200:_ZNSt12domain_errorC2EPKc
libx265.so.200:_ZNSt12domain_errorC2ERKNSt7__cxx1112basic_stringIcSt11char_traitsIcESaIcEEE
libx265.so.200:_ZNSt12domain_errorC2ERKSs
libx265.so.200:_ZNSt12domain_errorD0Ev
libx265.so.200:_ZNSt12domain_errorD1Ev
libx265.so.200:_ZNSt12domain_errorD2Ev
libx265.so.200:_ZNSt12length_errorC1EPKc
libx265.so.200:_ZNSt12length_errorC1ERKNSt7__cxx1112basic_stringIcSt11char_traitsIcESaIcEEE
libx265.so.200:_ZNSt12length_errorC1ERKSs
libx265.so.200:_ZNSt12length_errorC2EPKc
libx265.so.200:_ZNSt12length_errorC2ERKNSt7__cxx1112basic_stringIcSt11char_traitsIcESaIcEEE
libx265.so.200:_ZNSt12length_errorC2ERKSs
libx265.so.200:_ZNSt12length_errorD0Ev
libx265.so.200:_ZNSt12length_errorD1Ev
libx265.so.200:_ZNSt12length_errorD2Ev
libx265.so.200:_ZNSt12out_of_rangeC1EPKc
libx265.so.200:_ZNSt12out_of_rangeC1ERKNSt7__cxx1112basic_stringIcSt11char_traitsIcESaIcEEE
libx265.so.200:_ZNSt12out_of_rangeC1ERKSs
libx265.so.200:_ZNSt12out_of_rangeC2EPKc
libx265.so.200:_ZNSt12out_of_rangeC2ERKNSt7__cxx1112basic_stringIcSt11char_traitsIcESaIcEEE
libx265.so.200:_ZNSt12out_of_rangeC2ERKSs
libx265.so.200:_ZNSt12out_of_rangeD0Ev
libx265.so.200:_ZNSt12out_of_rangeD1Ev
libx265.so.200:_ZNSt12out_of_rangeD2Ev
libx265.so.200:_ZNSt12system_errorD0Ev
libx265.so.200:_ZNSt12system_errorD1Ev
libx265.so.200:_ZNSt12system_errorD2Ev
libx265.so.200:_ZNSt13bad_exceptionD0Ev
libx265.so.200:_ZNSt13bad_exceptionD1Ev
libx265.so.200:_ZNSt13bad_exceptionD2Ev
libx265.so.200:_ZNSt13basic_istreamIwSt11char_traitsIwEE6ignoreEl
libx265.so.200:_ZNSt13basic_istreamIwSt11char_traitsIwEE6ignoreElj
libx265.so.200:_ZNSt13basic_istreamIwSt11char_traitsIwEE7getlineEPwlw
libx265.so.200:_ZNSt13random_device14_M_init_pretr1ERKNSt7__cxx1112basic_stringIcSt11char_traitsIcESaIcEEE
libx265.so.200:_ZNSt13random_device14_M_init_pretr1ERKSs
libx265.so.200:_ZNSt13random_device16_M_getval_pretr1Ev
libx265.so.200:_ZNSt13random_device7_M_finiEv
libx265.so.200:_ZNSt13random_device7_M_initEPKcm
libx265.so.200:_ZNSt13random_device7_M_initERKNSt7__cxx1112basic_stringIcSt11char_traitsIcESaIcEEE
libx265.so.200:_ZNSt13random_device7_M_initERKSs
libx265.so.200:_ZNSt13random_device9_M_getvalEv
libx265.so.200:_ZNSt13runtime_errorC1EOS_
libx265.so.200:_ZNSt13runtime_errorC1EPKc
libx265.so.200:_ZNSt13runtime_errorC1ERKNSt7__cxx1112basic_stringIcSt11char_traitsIcESaIcEEE
libx265.so.200:_ZNSt13runtime_errorC1ERKS_
libx265.so.200:_ZNSt13runtime_errorC1ERKSs
libx265.so.200:_ZNSt13runtime_errorC2EOS_
libx265.so.200:_ZNSt13runtime_errorC2EPKc
libx265.so.200:_ZNSt13runtime_errorC2ERKNSt7__cxx1112basic_stringIcSt11char_traitsIcESaIcEEE
libx265.so.200:_ZNSt13runtime_errorC2ERKS_
libx265.so.200:_ZNSt13runtime_errorC2ERKSs
libx265.so.200:_ZNSt13runtime_errorD0Ev
libx265.so.200:_ZNSt13runtime_errorD1Ev
libx265.so.200:_ZNSt13runtime_errorD2Ev
libx265.so.200:_ZNSt13runtime_erroraSEOS_
libx265.so.200:_ZNSt13runtime_erroraSERKS_
libx265.so.200:_ZNSt14overflow_errorC1EPKc
libx265.so.200:_ZNSt14overflow_errorC1ERKNSt7__cxx1112basic_stringIcSt11char_traitsIcESaIcEEE
libx265.so.200:_ZNSt14overflow_errorC1ERKSs
libx265.so.200:_ZNSt14overflow_errorC2EPKc
libx265.so.200:_ZNSt14overflow_errorC2ERKNSt7__cxx1112basic_stringIcSt11char_traitsIcESaIcEEE
libx265.so.200:_ZNSt14overflow_errorC2ERKSs
libx265.so.200:_ZNSt14overflow_errorD0Ev
libx265.so.200:_ZNSt14overflow_errorD1Ev
libx265.so.200:_ZNSt14overflow_errorD2Ev
libx265.so.200:_ZNSt15underflow_errorC1EPKc
libx265.so.200:_ZNSt15underflow_errorC1ERKNSt7__cxx1112basic_stringIcSt11char_traitsIcESaIcEEE
libx265.so.200:_ZNSt15underflow_errorC1ERKSs
libx265.so.200:_ZNSt15underflow_errorC2EPKc
libx265.so.200:_ZNSt15underflow_errorC2ERKNSt7__cxx1112basic_stringIcSt11char_traitsIcESaIcEEE
libx265.so.200:_ZNSt15underflow_errorC2ERKSs
libx265.so.200:_ZNSt15underflow_errorD0Ev
libx265.so.200:_ZNSt15underflow_errorD1Ev
libx265.so.200:_ZNSt15underflow_errorD2Ev
libx265.so.200:_ZNSt16invalid_argumentC1EPKc
libx265.so.200:_ZNSt16invalid_argumentC1ERKNSt7__cxx1112basic_stringIcSt11char_traitsIcESaIcEEE
libx265.so.200:_ZNSt16invalid_argumentC1ERKSs
libx265.so.200:_ZNSt16invalid_argumentC2EPKc
libx265.so.200:_ZNSt16invalid_argumentC2ERKNSt7__cxx1112basic_stringIcSt11char_traitsIcESaIcEEE
libx265.so.200:_ZNSt16invalid_argumentC2ERKSs
libx265.so.200:_ZNSt16invalid_argumentD0Ev
libx265.so.200:_ZNSt16invalid_argumentD1Ev
libx265.so.200:_ZNSt16invalid_argumentD2Ev
libx265.so.200:_ZNSt19__codecvt_utf8_baseIDiED0Ev
libx265.so.200:_ZNSt19__codecvt_utf8_baseIDiED1Ev
libx265.so.200:_ZNSt19__codecvt_utf8_baseIDiED2Ev
libx265.so.200:_ZNSt19__codecvt_utf8_baseIDsED0Ev
libx265.so.200:_ZNSt19__codecvt_utf8_baseIDsED1Ev
libx265.so.200:_ZNSt19__codecvt_utf8_baseIDsED2Ev
libx265.so.200:_ZNSt19__codecvt_utf8_baseIwED0Ev
libx265.so.200:_ZNSt19__codecvt_utf8_baseIwED1Ev
libx265.so.200:_ZNSt19__codecvt_utf8_baseIwED2Ev
libx265.so.200:_ZNSt19__iosfail_type_infoD0Ev
libx265.so.200:_ZNSt19__iosfail_type_infoD1Ev
libx265.so.200:_ZNSt19__iosfail_type_infoD2Ev
libx265.so.200:_ZNSt20__codecvt_utf16_baseIDiED0Ev
libx265.so.200:_ZNSt20__codecvt_utf16_baseIDiED1Ev
libx265.so.200:_ZNSt20__codecvt_utf16_baseIDiED2Ev
libx265.so.200:_ZNSt20__codecvt_utf16_baseIDsED0Ev
libx265.so.200:_ZNSt20__codecvt_utf16_baseIDsED1Ev
libx265.so.200:_ZNSt20__codecvt_utf16_baseIDsED2Ev
libx265.so.200:_ZNSt20__codecvt_utf16_baseIwED0Ev
libx265.so.200:_ZNSt20__codecvt_utf16_baseIwED1Ev
libx265.so.200:_ZNSt20__codecvt_utf16_baseIwED2Ev
libx265.so.200:_ZNSt20bad_array_new_lengthD0Ev
libx265.so.200:_ZNSt20bad_array_new_lengthD1Ev
libx265.so.200:_ZNSt20bad_array_new_lengthD2Ev
libx265.so.200:_ZNSt25__codecvt_utf8_utf16_baseIDiED0Ev
libx265.so.200:_ZNSt25__codecvt_utf8_utf16_baseIDiED1Ev
libx265.so.200:_ZNSt25__codecvt_utf8_utf16_baseIDiED2Ev
libx265.so.200:_ZNSt25__codecvt_utf8_utf16_baseIDsED0Ev
libx265.so.200:_ZNSt25__codecvt_utf8_utf16_baseIDsED1Ev
libx265.so.200:_ZNSt25__codecvt_utf8_utf16_baseIDsED2Ev
libx265.so.200:_ZNSt25__codecvt_utf8_utf16_baseIwED0Ev
libx265.so.200:_ZNSt25__codecvt_utf8_utf16_baseIwED1Ev
libx265.so.200:_ZNSt25__codecvt_utf8_utf16_baseIwED2Ev
libx265.so.200:_ZNSt3_V214error_categoryD0Ev
libx265.so.200:_ZNSt3_V214error_categoryD1Ev
libx265.so.200:_ZNSt3_V214error_categoryD2Ev
libx265.so.200:_ZNSt3_V215system_categoryEv
libx265.so.200:_ZNSt3_V216generic_categoryEv
libx265.so.200:_ZNSt5ctypeIcE13classic_tableEv
libx265.so.200:_ZNSt5ctypeIcEC1EP15__locale_structPKtbm
libx265.so.200:_ZNSt5ctypeIcEC1EPKtbm
libx265.so.200:_ZNSt5ctypeIcEC2EP15__locale_structPKtbm
libx265.so.200:_ZNSt5ctypeIcEC2EPKtbm
libx265.so.200:_ZNSt5ctypeIcED0Ev
libx265.so.200:_ZNSt5ctypeIcED1Ev
libx265.so.200:_ZNSt5ctypeIcED2Ev
libx265.so.200:_ZNSt5ctypeIwE19_M_initialize_ctypeEv
libx265.so.200:_ZNSt5ctypeIwEC1EP15__locale_structm
libx265.so.200:_ZNSt5ctypeIwEC1Em
libx265.so.200:_ZNSt5ctypeIwEC2EP15__locale_structm
libx265.so.200:_ZNSt5ctypeIwEC2Em
libx265.so.200:_ZNSt5ctypeIwED0Ev
libx265.so.200:_ZNSt5ctypeIwED1Ev
libx265.so.200:_ZNSt5ctypeIwED2Ev
libx265.so.200:_ZNSt6locale13_S_initializeEv
libx265.so.200:_ZNSt6locale18_S_initialize_onceEv
libx265.so.200:_ZNSt6locale21_S_normalize_categoryEi
libx265.so.200:_ZNSt6locale5_Impl13_M_init_extraEPPNS_5facetE
libx265.so.200:_ZNSt6locale5_Impl13_M_init_extraEPvS1_PKcS3_
libx265.so.200:_ZNSt6locale5_Impl16_M_install_cacheEPKNS_5facetEm
libx265.so.200:_ZNSt6locale5_Impl16_M_install_facetEPKNS_2idEPKNS_5facetE
libx265.so.200:_ZNSt6locale5_Impl16_M_replace_facetEPKS0_PKNS_2idE
libx265.so.200:_ZNSt6locale5_Impl19_M_replace_categoryEPKS0_PKPKNS_2idE
libx265.so.200:_ZNSt6locale5_ImplC1ERKS0_m
libx265.so.200:_ZNSt6locale5_ImplC1Em
libx265.so.200:_ZNSt6locale5_ImplC2ERKS0_m
libx265.so.200:_ZNSt6locale5_ImplC2Em
libx265.so.200:_ZNSt6locale5_ImplD1Ev
libx265.so.200:_ZNSt6locale5_ImplD2Ev
libx265.so.200:_ZNSt6locale5facet13_S_get_c_nameEv
libx265.so.200:_ZNSt6locale5facet15_S_get_c_localeEv
libx265.so.200:_ZNSt6locale5facet17_S_clone_c_localeERP15__locale_struct
libx265.so.200:_ZNSt6locale5facet18_S_create_c_localeERP15__locale_structPKcS2_
libx265.so.200:_ZNSt6locale5facet18_S_initialize_onceEv
libx265.so.200:_ZNSt6locale5facet19_S_destroy_c_localeERP15__locale_struct
libx265.so.200:_ZNSt6locale5facet20_S_lc_ctype_c_localeEP15__locale_structPKc
libx265.so.200:_ZNSt6locale5facetD0Ev
libx265.so.200:_ZNSt6locale5facetD1Ev
libx265.so.200:_ZNSt6locale5facetD2Ev
libx265.so.200:_ZNSt6locale6globalERKS_
libx265.so.200:_ZNSt6locale7classicEv
libx265.so.200:_ZNSt6localeC1EPNS_5_ImplE
libx265.so.200:_ZNSt6localeC1ERKS_
libx265.so.200:_ZNSt6localeC1Ev
libx265.so.200:_ZNSt6localeC2EPNS_5_ImplE
libx265.so.200:_ZNSt6localeC2ERKS_
libx265.so.200:_ZNSt6localeC2Ev
libx265.so.200:_ZNSt6localeD1Ev
libx265.so.200:_ZNSt6localeD2Ev
libx265.so.200:_ZNSt6localeaSERKS_
libx265.so.200:_ZNSt7__cxx1110moneypunctIcLb0EE24_M_initialize_moneypunctEP15__locale_structPKc
libx265.so.200:_ZNSt7__cxx1110moneypunctIcLb0EED0Ev
libx265.so.200:_ZNSt7__cxx1110moneypunctIcLb0EED1Ev
libx265.so.200:_ZNSt7__cxx1110moneypunctIcLb0EED2Ev
libx265.so.200:_ZNSt7__cxx1110moneypunctIcLb1EE24_M_initialize_moneypunctEP15__locale_structPKc
libx265.so.200:_ZNSt7__cxx1110moneypunctIcLb1EED0Ev
libx265.so.200:_ZNSt7__cxx1110moneypunctIcLb1EED1Ev
libx265.so.200:_ZNSt7__cxx1110moneypunctIcLb1EED2Ev
libx265.so.200:_ZNSt7__cxx1110moneypunctIwLb0EE24_M_initialize_moneypunctEP15__locale_structPKc
libx265.so.200:_ZNSt7__cxx1110moneypunctIwLb0EED0Ev
libx265.so.200:_ZNSt7__cxx1110moneypunctIwLb0EED1Ev
libx265.so.200:_ZNSt7__cxx1110moneypunctIwLb0EED2Ev
libx265.so.200:_ZNSt7__cxx1110moneypunctIwLb1EE24_M_initialize_moneypunctEP15__locale_structPKc
libx265.so.200:_ZNSt7__cxx1110moneypunctIwLb1EED0Ev
libx265.so.200:_ZNSt7__cxx1110moneypunctIwLb1EED1Ev
libx265.so.200:_ZNSt7__cxx1110moneypunctIwLb1EED2Ev
libx265.so.200:_ZNSt7__cxx1112basic_stringIcSt11char_traitsIcESaIcEE12_M_constructIPKcEEvT_S8_St20forward_iterator_tag
libx265.so.200:_ZNSt7__cxx1112basic_stringIcSt11char_traitsIcESaIcEE12_M_constructIPcEEvT_S7_St20forward_iterator_tag
libx265.so.200:_ZNSt7__cxx118numpunctIcE22_M_initialize_numpunctEP15__locale_struct
libx265.so.200:_ZNSt7__cxx118numpunctIcED0Ev
libx265.so.200:_ZNSt7__cxx118numpunctIcED1Ev
libx265.so.200:_ZNSt7__cxx118numpunctIcED2Ev
libx265.so.200:_ZNSt7__cxx118numpunctIwE22_M_initialize_numpunctEP15__locale_struct
libx265.so.200:_ZNSt7__cxx118numpunctIwED0Ev
libx265.so.200:_ZNSt7__cxx118numpunctIwED1Ev
libx265.so.200:_ZNSt7__cxx118numpunctIwED2Ev
libx265.so.200:_ZNSt7codecvtIDiDu11__mbstate_tED0Ev
libx265.so.200:_ZNSt7codecvtIDiDu11__mbstate_tED1Ev
libx265.so.200:_ZNSt7codecvtIDiDu11__mbstate_tED2Ev
libx265.so.200:_ZNSt7codecvtIDic11__mbstate_tED0Ev
libx265.so.200:_ZNSt7codecvtIDic11__mbstate_tED1Ev
libx265.so.200:_ZNSt7codecvtIDic11__mbstate_tED2Ev
libx265.so.200:_ZNSt7codecvtIDsDu11__mbstate_tED0Ev
libx265.so.200:_ZNSt7codecvtIDsDu11__mbstate_tED1Ev
libx265.so.200:_ZNSt7codecvtIDsDu11__mbstate_tED2Ev
libx265.so.200:_ZNSt7codecvtIDsc11__mbstate_tED0Ev
libx265.so.200:_ZNSt7codecvtIDsc11__mbstate_tED1Ev
libx265.so.200:_ZNSt7codecvtIDsc11__mbstate_tED2Ev
libx265.so.200:_ZNSt7codecvtIcc11__mbstate_tEC1EP15__locale_structm
libx265.so.200:_ZNSt7codecvtIcc11__mbstate_tEC1Em
libx265.so.200:_ZNSt7codecvtIcc11__mbstate_tEC2EP15__locale_structm
libx265.so.200:_ZNSt7codecvtIcc11__mbstate_tEC2Em
libx265.so.200:_ZNSt7codecvtIcc11__mbstate_tED0Ev
libx265.so.200:_ZNSt7codecvtIcc11__mbstate_tED1Ev
libx265.so.200:_ZNSt7codecvtIcc11__mbstate_tED2Ev
libx265.so.200:_ZNSt7codecvtIwc11__mbstate_tEC1EP15__locale_structm
libx265.so.200:_ZNSt7codecvtIwc11__mbstate_tEC1Em
libx265.so.200:_ZNSt7codecvtIwc11__mbstate_tEC2EP15__locale_structm
libx265.so.200:_ZNSt7codecvtIwc11__mbstate_tEC2Em
libx265.so.200:_ZNSt7codecvtIwc11__mbstate_tED0Ev
libx265.so.200:_ZNSt7codecvtIwc11__mbstate_tED1Ev
libx265.so.200:_ZNSt7codecvtIwc11__mbstate_tED2Ev
libx265.so.200:_ZNSt8Catalogs6_M_addEPKcSt6locale
libx265.so.200:_ZNSt8Catalogs8_M_eraseEi
libx265.so.200:_ZNSt8CatalogsD1Ev
libx265.so.200:_ZNSt8CatalogsD2Ev
libx265.so.200:_ZNSt8bad_castD0Ev
libx265.so.200:_ZNSt8bad_castD1Ev
libx265.so.200:_ZNSt8bad_castD2Ev
libx265.so.200:_ZNSt8ios_base13_M_grow_wordsEib
libx265.so.200:_ZNSt8ios_base15sync_with_stdioEb
libx265.so.200:_ZNSt8ios_base17_M_call_callbacksENS_5eventE
libx265.so.200:_ZNSt8ios_base17register_callbackEPFvNS_5eventERS_iEi
libx265.so.200:_ZNSt8ios_base20_M_dispose_callbacksEv
libx265.so.200:_ZNSt8ios_base4InitC1Ev
libx265.so.200:_ZNSt8ios_base4InitC2Ev
libx265.so.200:_ZNSt8ios_base4InitD1Ev
libx265.so.200:_ZNSt8ios_base4InitD2Ev
libx265.so.200:_ZNSt8ios_base5imbueERKSt6locale
libx265.so.200:_ZNSt8ios_base6xallocEv
libx265.so.200:_ZNSt8ios_base7_M_initEv
libx265.so.200:_ZNSt8ios_base7_M_moveERS_
libx265.so.200:_ZNSt8ios_base7_M_swapERS_
libx265.so.200:_ZNSt8ios_base7failureB5cxx11C1EPKcRKSt10error_code
libx265.so.200:_ZNSt8ios_base7failureB5cxx11C1ERKNSt7__cxx1112basic_stringIcSt11char_traitsIcESaIcEEE
libx265.so.200:_ZNSt8ios_base7failureB5cxx11C1ERKNSt7__cxx1112basic_stringIcSt11char_traitsIcESaIcEEERKSt10error_code
libx265.so.200:_ZNSt8ios_base7failureB5cxx11C2EPKcRKSt10error_code
libx265.so.200:_ZNSt8ios_base7failureB5cxx11C2ERKNSt7__cxx1112basic_stringIcSt11char_traitsIcESaIcEEE
libx265.so.200:_ZNSt8ios_base7failureB5cxx11C2ERKNSt7__cxx1112basic_stringIcSt11char_traitsIcESaIcEEERKSt10error_code
libx265.so.200:_ZNSt8ios_base7failureB5cxx11D0Ev
libx265.so.200:_ZNSt8ios_base7failureB5cxx11D1Ev
libx265.so.200:_ZNSt8ios_base7failureB5cxx11D2Ev
libx265.so.200:_ZNSt8ios_base7failureC1ERKSs
libx265.so.200:_ZNSt8ios_base7failureC2ERKSs
libx265.so.200:_ZNSt8ios_base7failureD0Ev
libx265.so.200:_ZNSt8ios_base7failureD1Ev
libx265.so.200:_ZNSt8ios_base7failureD2Ev
libx265.so.200:_ZNSt8ios_baseC1Ev
libx265.so.200:_ZNSt8ios_baseC2Ev
libx265.so.200:_ZNSt8ios_baseD0Ev
libx265.so.200:_ZNSt8ios_baseD1Ev
libx265.so.200:_ZNSt8ios_baseD2Ev
libx265.so.200:_ZNSt8numpunctIcE22_M_initialize_numpunctEP15__locale_struct
libx265.so.200:_ZNSt8numpunctIcED0Ev
libx265.so.200:_ZNSt8numpunctIcED1Ev
libx265.so.200:_ZNSt8numpunctIcED2Ev
libx265.so.200:_ZNSt8numpunctIwE22_M_initialize_numpunctEP15__locale_struct
libx265.so.200:_ZNSt8numpunctIwED0Ev
libx265.so.200:_ZNSt8numpunctIwED1Ev
libx265.so.200:_ZNSt8numpunctIwED2Ev
libx265.so.200:_ZNSt9bad_allocD0Ev
libx265.so.200:_ZNSt9bad_allocD1Ev
libx265.so.200:_ZNSt9bad_allocD2Ev
libx265.so.200:_ZNSt9exceptionD0Ev
libx265.so.200:_ZNSt9exceptionD1Ev
libx265.so.200:_ZNSt9exceptionD2Ev
libx265.so.200:_ZNSt9type_infoD0Ev
libx265.so.200:_ZNSt9type_infoD1Ev
libx265.so.200:_ZNSt9type_infoD2Ev
libx265.so.200:_ZSt10unexpectedv
libx265.so.200:_ZSt12get_catalogsv
libx265.so.200:_ZSt13get_terminatev
libx265.so.200:_ZSt13set_terminatePFvvE
libx265.so.200:_ZSt14__convert_to_vIdEvPKcRT_RSt12_Ios_IostateRKP15__locale_struct
libx265.so.200:_ZSt14__convert_to_vIeEvPKcRT_RSt12_Ios_IostateRKP15__locale_struct
libx265.so.200:_ZSt14__convert_to_vIfEvPKcRT_RSt12_Ios_IostateRKP15__locale_struct
libx265.so.200:_ZSt14get_unexpectedv
libx265.so.200:_ZSt14set_unexpectedPFvvE
libx265.so.200:_ZSt15get_new_handlerv
libx265.so.200:_ZSt15set_new_handlerPFvvE
libx265.so.200:_ZSt16__throw_bad_castv
libx265.so.200:_ZSt17__istream_extractRSiPcl
libx265.so.200:_ZSt17__throw_bad_allocv
libx265.so.200:_ZSt17__verify_groupingPKcmRKNSt7__cxx1112basic_stringIcSt11char_traitsIcESaIcEEE
libx265.so.200:_ZSt17__verify_groupingPKcmRKSs
libx265.so.200:_ZSt17iostream_categoryv
libx265.so.200:_ZSt18_Rb_tree_decrementPKSt18_Rb_tree_node_base
libx265.so.200:_ZSt18_Rb_tree_decrementPSt18_Rb_tree_node_base
libx265.so.200:_ZSt18_Rb_tree_incrementPKSt18_Rb_tree_node_base
libx265.so.200:_ZSt18_Rb_tree_incrementPSt18_Rb_tree_node_base
libx265.so.200:_ZSt18__throw_bad_typeidv
libx265.so.200:_ZSt18uncaught_exceptionv
libx265.so.200:_ZSt19__throw_ios_failurePKc
libx265.so.200:_ZSt19__throw_ios_failurePKci
libx265.so.200:_ZSt19__throw_logic_errorPKc
libx265.so.200:_ZSt19__throw_range_errorPKc
libx265.so.200:_ZSt19uncaught_exceptionsv
libx265.so.200:_ZSt20_Rb_tree_black_countPKSt18_Rb_tree_node_baseS1_
libx265.so.200:_ZSt20_Rb_tree_rotate_leftPSt18_Rb_tree_node_baseRS0_
libx265.so.200:_ZSt20__throw_domain_errorPKc
libx265.so.200:_ZSt20__throw_length_errorPKc
libx265.so.200:_ZSt20__throw_out_of_rangePKc
libx265.so.200:_ZSt20__throw_system_errori
libx265.so.200:_ZSt21_Rb_tree_rotate_rightPSt18_Rb_tree_node_baseRS0_
libx265.so.200:_ZSt21__copy_streambufs_eofIcSt11char_traitsIcEElPSt15basic_streambufIT_T0_ES6_Rb
libx265.so.200:_ZSt21__copy_streambufs_eofIwSt11char_traitsIwEElPSt15basic_streambufIT_T0_ES6_Rb
libx265.so.200:_ZSt21__destroy_ios_failurePv
libx265.so.200:_ZSt21__throw_bad_exceptionv
libx265.so.200:_ZSt21__throw_runtime_errorPKc
libx265.so.200:_ZSt22__throw_overflow_errorPKc
libx265.so.200:_ZSt22__verify_grouping_implPKcmS0_m
libx265.so.200:_ZSt23__construct_ios_failurePvPKc
libx265.so.200:_ZSt23__throw_underflow_errorPKc
libx265.so.200:_ZSt24__is_ios_failure_handlerPKN10__cxxabiv117__class_type_infoE
libx265.so.200:_ZSt24__narrow_multibyte_charsPKcP15__locale_struct
libx265.so.200:_ZSt24__throw_invalid_argumentPKc
libx265.so.200:_ZSt24__throw_out_of_range_fmtPKcz
libx265.so.200:_ZSt28_Rb_tree_rebalance_for_erasePSt18_Rb_tree_node_baseRS_
libx265.so.200:_ZSt28__throw_bad_array_new_lengthv
libx265.so.200:_ZSt29_Rb_tree_insert_and_rebalancebPSt18_Rb_tree_node_baseS0_RS_
libx265.so.200:_ZSt9terminatev
libx265.so.200:_ZStplIcSt11char_traitsIcESaIcEENSt7__cxx1112basic_stringIT_T0_T1_EEPKS5_RKS8_
libx265.so.200:_ZThn80_N10x265_12bit12FrameEncoder10threadMainEv
libx265.so.200:_ZThn80_N4x26512FrameEncoder10threadMainEv
libx265.so.200:_ZdaPv
libx265.so.200:_ZdlPv
libx265.so.200:_ZdlPvm
libx265.so.200:_Znam
libx265.so.200:_ZnamRKSt9nothrow_t
libx265.so.200:_Znwm
libx265.so.200:__cxa_allocate_dependent_exception
libx265.so.200:__cxa_allocate_exception
libx265.so.200:__cxa_bad_cast
libx265.so.200:__cxa_bad_typeid
libx265.so.200:__cxa_begin_catch
libx265.so.200:__cxa_call_terminate
libx265.so.200:__cxa_call_unexpected
libx265.so.200:__cxa_current_exception_type
libx265.so.200:__cxa_demangle
libx265.so.200:__cxa_end_catch
libx265.so.200:__cxa_free_dependent_exception
libx265.so.200:__cxa_free_exception
libx265.so.200:__cxa_get_exception_ptr
libx265.so.200:__cxa_get_globals
libx265.so.200:__cxa_get_globals_fast
libx265.so.200:__cxa_guard_abort
libx265.so.200:__cxa_guard_acquire
libx265.so.200:__cxa_guard_release
libx265.so.200:__cxa_init_primary_exception
libx265.so.200:__cxa_rethrow
libx265.so.200:__cxa_throw
libx265.so.200:__cxa_throw_bad_array_new_length
libx265.so.200:__dynamic_cast
libx265.so.200:__gcclibcxx_demangle_callback
libx265.so.200:__gxx_personality_v0
libx265.so.200:x265_12bit_intel_cpu_indicator_init
libx265.so.200:x265_alloc_analysis_data
libx265.so.200:x265_api_get_200
libx265.so.200:x265_api_query
libx265.so.200:x265_cleanup
libx265.so.200:x265_csvlog_encode
libx265.so.200:x265_csvlog_frame
libx265.so.200:x265_csvlog_open
libx265.so.200:x265_dither_image
libx265.so.200:x265_encoder_close
libx265.so.200:x265_encoder_ctu_info
libx265.so.200:x265_encoder_encode
libx265.so.200:x265_encoder_get_stats
libx265.so.200:x265_encoder_headers
libx265.so.200:x265_encoder_intra_refresh
libx265.so.200:x265_encoder_log
libx265.so.200:x265_encoder_open_200
libx265.so.200:x265_encoder_parameters
libx265.so.200:x265_encoder_reconfig
libx265.so.200:x265_encoder_reconfig_zone
libx265.so.200:x265_free_analysis_data
libx265.so.200:x265_get_ref_frame_list
libx265.so.200:x265_get_slicetype_poc_and_scenecut
libx265.so.200:x265_intel_cpu_indicator_init
libx265.so.200:x265_param_alloc
libx265.so.200:x265_param_apply_profile
libx265.so.200:x265_param_default
libx265.so.200:x265_param_default_preset
libx265.so.200:x265_param_free
libx265.so.200:x265_param_parse
libx265.so.200:x265_picture_alloc
libx265.so.200:x265_picture_free
libx265.so.200:x265_picture_init
libx265.so.200:x265_set_analysis_data
libx265.so.200:x265_zone_alloc
libx265.so.200:x265_zone_free
libx265.so.200:x265_zone_param_parse
